ARM GAS  /tmp/ccAK1HYA.s 			page 1


   1              		.cpu cortex-m3
   2              		.eabi_attribute 20, 1
   3              		.eabi_attribute 21, 1
   4              		.eabi_attribute 23, 3
   5              		.eabi_attribute 24, 1
   6              		.eabi_attribute 25, 1
   7              		.eabi_attribute 26, 1
   8              		.eabi_attribute 30, 1
   9              		.eabi_attribute 34, 1
  10              		.eabi_attribute 18, 4
  11              		.file	"stm32f2xx_hal_dac.c"
  12              		.text
  13              	.Ltext0:
  14              		.cfi_sections	.debug_frame
  15              		.section	.text.HAL_DAC_MspInit,"ax",%progbits
  16              		.align	1
  17              		.weak	HAL_DAC_MspInit
  18              		.arch armv7-m
  19              		.syntax unified
  20              		.thumb
  21              		.thumb_func
  22              		.fpu softvfp
  24              	HAL_DAC_MspInit:
  25              	.LVL0:
  26              	.LFB74:
  27              		.file 1 "Drivers/STM32F2xx_HAL_Driver/Src/stm32f2xx_hal_dac.c"
   1:Drivers/STM32F2xx_HAL_Driver/Src/stm32f2xx_hal_dac.c **** /**
   2:Drivers/STM32F2xx_HAL_Driver/Src/stm32f2xx_hal_dac.c ****   ******************************************************************************
   3:Drivers/STM32F2xx_HAL_Driver/Src/stm32f2xx_hal_dac.c ****   * @file    stm32f2xx_hal_dac.c
   4:Drivers/STM32F2xx_HAL_Driver/Src/stm32f2xx_hal_dac.c ****   * @author  MCD Application Team
   5:Drivers/STM32F2xx_HAL_Driver/Src/stm32f2xx_hal_dac.c ****   * @brief   DAC HAL module driver.
   6:Drivers/STM32F2xx_HAL_Driver/Src/stm32f2xx_hal_dac.c ****   *         This file provides firmware functions to manage the following
   7:Drivers/STM32F2xx_HAL_Driver/Src/stm32f2xx_hal_dac.c ****   *         functionalities of the Digital to Analog Converter (DAC) peripheral:
   8:Drivers/STM32F2xx_HAL_Driver/Src/stm32f2xx_hal_dac.c ****   *           + Initialization and de-initialization functions
   9:Drivers/STM32F2xx_HAL_Driver/Src/stm32f2xx_hal_dac.c ****   *           + IO operation functions
  10:Drivers/STM32F2xx_HAL_Driver/Src/stm32f2xx_hal_dac.c ****   *           + Peripheral Control functions
  11:Drivers/STM32F2xx_HAL_Driver/Src/stm32f2xx_hal_dac.c ****   *           + Peripheral State and Errors functions
  12:Drivers/STM32F2xx_HAL_Driver/Src/stm32f2xx_hal_dac.c ****   *
  13:Drivers/STM32F2xx_HAL_Driver/Src/stm32f2xx_hal_dac.c ****   *
  14:Drivers/STM32F2xx_HAL_Driver/Src/stm32f2xx_hal_dac.c ****   @verbatim
  15:Drivers/STM32F2xx_HAL_Driver/Src/stm32f2xx_hal_dac.c ****   ==============================================================================
  16:Drivers/STM32F2xx_HAL_Driver/Src/stm32f2xx_hal_dac.c ****                       ##### DAC Peripheral features #####
  17:Drivers/STM32F2xx_HAL_Driver/Src/stm32f2xx_hal_dac.c ****   ==============================================================================
  18:Drivers/STM32F2xx_HAL_Driver/Src/stm32f2xx_hal_dac.c ****     [..]
  19:Drivers/STM32F2xx_HAL_Driver/Src/stm32f2xx_hal_dac.c ****       *** DAC Channels ***
  20:Drivers/STM32F2xx_HAL_Driver/Src/stm32f2xx_hal_dac.c ****       ====================
  21:Drivers/STM32F2xx_HAL_Driver/Src/stm32f2xx_hal_dac.c ****     [..]
  22:Drivers/STM32F2xx_HAL_Driver/Src/stm32f2xx_hal_dac.c ****     STM32F2 devices integrate two 12-bit Digital Analog Converters
  23:Drivers/STM32F2xx_HAL_Driver/Src/stm32f2xx_hal_dac.c **** 
  24:Drivers/STM32F2xx_HAL_Driver/Src/stm32f2xx_hal_dac.c ****     The 2 converters (i.e. channel1 & channel2)
  25:Drivers/STM32F2xx_HAL_Driver/Src/stm32f2xx_hal_dac.c ****     can be used independently or simultaneously (dual mode):
  26:Drivers/STM32F2xx_HAL_Driver/Src/stm32f2xx_hal_dac.c ****       (#) DAC channel1 with DAC_OUT1 (PA4) as output or connected to on-chip
  27:Drivers/STM32F2xx_HAL_Driver/Src/stm32f2xx_hal_dac.c ****           peripherals (ex. timers).
  28:Drivers/STM32F2xx_HAL_Driver/Src/stm32f2xx_hal_dac.c ****       (#) DAC channel2 with DAC_OUT2 (PA5) as output or connected to on-chip
  29:Drivers/STM32F2xx_HAL_Driver/Src/stm32f2xx_hal_dac.c ****           peripherals (ex. timers).
  30:Drivers/STM32F2xx_HAL_Driver/Src/stm32f2xx_hal_dac.c **** 
  31:Drivers/STM32F2xx_HAL_Driver/Src/stm32f2xx_hal_dac.c ****       *** DAC Triggers ***
ARM GAS  /tmp/ccAK1HYA.s 			page 2


  32:Drivers/STM32F2xx_HAL_Driver/Src/stm32f2xx_hal_dac.c ****       ====================
  33:Drivers/STM32F2xx_HAL_Driver/Src/stm32f2xx_hal_dac.c ****     [..]
  34:Drivers/STM32F2xx_HAL_Driver/Src/stm32f2xx_hal_dac.c ****     Digital to Analog conversion can be non-triggered using DAC_TRIGGER_NONE
  35:Drivers/STM32F2xx_HAL_Driver/Src/stm32f2xx_hal_dac.c ****     and DAC_OUT1/DAC_OUT2 is available once writing to DHRx register.
  36:Drivers/STM32F2xx_HAL_Driver/Src/stm32f2xx_hal_dac.c ****     [..]
  37:Drivers/STM32F2xx_HAL_Driver/Src/stm32f2xx_hal_dac.c ****     Digital to Analog conversion can be triggered by:
  38:Drivers/STM32F2xx_HAL_Driver/Src/stm32f2xx_hal_dac.c ****       (#) External event: EXTI Line 9 (any GPIOx_PIN_9) using DAC_TRIGGER_EXT_IT9.
  39:Drivers/STM32F2xx_HAL_Driver/Src/stm32f2xx_hal_dac.c ****           The used pin (GPIOx_PIN_9) must be configured in input mode.
  40:Drivers/STM32F2xx_HAL_Driver/Src/stm32f2xx_hal_dac.c **** 
  41:Drivers/STM32F2xx_HAL_Driver/Src/stm32f2xx_hal_dac.c ****       (#) Timers TRGO: TIM2, TIM4, TIM5, TIM6, TIM7 and TIM8
  42:Drivers/STM32F2xx_HAL_Driver/Src/stm32f2xx_hal_dac.c ****           (DAC_TRIGGER_T2_TRGO, DAC_TRIGGER_T4_TRGO...)
  43:Drivers/STM32F2xx_HAL_Driver/Src/stm32f2xx_hal_dac.c **** 
  44:Drivers/STM32F2xx_HAL_Driver/Src/stm32f2xx_hal_dac.c ****       (#) Software using DAC_TRIGGER_SOFTWARE
  45:Drivers/STM32F2xx_HAL_Driver/Src/stm32f2xx_hal_dac.c **** 
  46:Drivers/STM32F2xx_HAL_Driver/Src/stm32f2xx_hal_dac.c ****       *** DAC Buffer mode feature ***
  47:Drivers/STM32F2xx_HAL_Driver/Src/stm32f2xx_hal_dac.c ****       ===============================
  48:Drivers/STM32F2xx_HAL_Driver/Src/stm32f2xx_hal_dac.c ****       [..]
  49:Drivers/STM32F2xx_HAL_Driver/Src/stm32f2xx_hal_dac.c ****       Each DAC channel integrates an output buffer that can be used to
  50:Drivers/STM32F2xx_HAL_Driver/Src/stm32f2xx_hal_dac.c ****       reduce the output impedance, and to drive external loads directly
  51:Drivers/STM32F2xx_HAL_Driver/Src/stm32f2xx_hal_dac.c ****       without having to add an external operational amplifier.
  52:Drivers/STM32F2xx_HAL_Driver/Src/stm32f2xx_hal_dac.c ****       To enable, the output buffer use
  53:Drivers/STM32F2xx_HAL_Driver/Src/stm32f2xx_hal_dac.c ****       sConfig.DAC_OutputBuffer = DAC_OUTPUTBUFFER_ENABLE;
  54:Drivers/STM32F2xx_HAL_Driver/Src/stm32f2xx_hal_dac.c ****       [..]
  55:Drivers/STM32F2xx_HAL_Driver/Src/stm32f2xx_hal_dac.c ****       (@) Refer to the device datasheet for more details about output
  56:Drivers/STM32F2xx_HAL_Driver/Src/stm32f2xx_hal_dac.c ****           impedance value with and without output buffer.
  57:Drivers/STM32F2xx_HAL_Driver/Src/stm32f2xx_hal_dac.c **** 
  58:Drivers/STM32F2xx_HAL_Driver/Src/stm32f2xx_hal_dac.c ****       *** GPIO configurations guidelines ***
  59:Drivers/STM32F2xx_HAL_Driver/Src/stm32f2xx_hal_dac.c ****       =====================
  60:Drivers/STM32F2xx_HAL_Driver/Src/stm32f2xx_hal_dac.c ****       [..]
  61:Drivers/STM32F2xx_HAL_Driver/Src/stm32f2xx_hal_dac.c ****       When a DAC channel is used (ex channel1 on PA4) and the other is not
  62:Drivers/STM32F2xx_HAL_Driver/Src/stm32f2xx_hal_dac.c ****       (ex channel2 on PA5 is configured in Analog and disabled).
  63:Drivers/STM32F2xx_HAL_Driver/Src/stm32f2xx_hal_dac.c ****       Channel1 may disturb channel2 as coupling effect.
  64:Drivers/STM32F2xx_HAL_Driver/Src/stm32f2xx_hal_dac.c ****       Note that there is no coupling on channel2 as soon as channel2 is turned on.
  65:Drivers/STM32F2xx_HAL_Driver/Src/stm32f2xx_hal_dac.c ****       Coupling on adjacent channel could be avoided as follows:
  66:Drivers/STM32F2xx_HAL_Driver/Src/stm32f2xx_hal_dac.c ****       when unused PA5 is configured as INPUT PULL-UP or DOWN.
  67:Drivers/STM32F2xx_HAL_Driver/Src/stm32f2xx_hal_dac.c ****       PA5 is configured in ANALOG just before it is turned on.
  68:Drivers/STM32F2xx_HAL_Driver/Src/stm32f2xx_hal_dac.c **** 
  69:Drivers/STM32F2xx_HAL_Driver/Src/stm32f2xx_hal_dac.c ****        *** DAC wave generation feature ***
  70:Drivers/STM32F2xx_HAL_Driver/Src/stm32f2xx_hal_dac.c ****        ===================================
  71:Drivers/STM32F2xx_HAL_Driver/Src/stm32f2xx_hal_dac.c ****        [..]
  72:Drivers/STM32F2xx_HAL_Driver/Src/stm32f2xx_hal_dac.c ****        Both DAC channels can be used to generate
  73:Drivers/STM32F2xx_HAL_Driver/Src/stm32f2xx_hal_dac.c ****          (#) Noise wave
  74:Drivers/STM32F2xx_HAL_Driver/Src/stm32f2xx_hal_dac.c ****          (#) Triangle wave
  75:Drivers/STM32F2xx_HAL_Driver/Src/stm32f2xx_hal_dac.c **** 
  76:Drivers/STM32F2xx_HAL_Driver/Src/stm32f2xx_hal_dac.c ****        *** DAC data format ***
  77:Drivers/STM32F2xx_HAL_Driver/Src/stm32f2xx_hal_dac.c ****        =======================
  78:Drivers/STM32F2xx_HAL_Driver/Src/stm32f2xx_hal_dac.c ****        [..]
  79:Drivers/STM32F2xx_HAL_Driver/Src/stm32f2xx_hal_dac.c ****        The DAC data format can be:
  80:Drivers/STM32F2xx_HAL_Driver/Src/stm32f2xx_hal_dac.c ****          (#) 8-bit right alignment using DAC_ALIGN_8B_R
  81:Drivers/STM32F2xx_HAL_Driver/Src/stm32f2xx_hal_dac.c ****          (#) 12-bit left alignment using DAC_ALIGN_12B_L
  82:Drivers/STM32F2xx_HAL_Driver/Src/stm32f2xx_hal_dac.c ****          (#) 12-bit right alignment using DAC_ALIGN_12B_R
  83:Drivers/STM32F2xx_HAL_Driver/Src/stm32f2xx_hal_dac.c **** 
  84:Drivers/STM32F2xx_HAL_Driver/Src/stm32f2xx_hal_dac.c ****        *** DAC data value to voltage correspondence ***
  85:Drivers/STM32F2xx_HAL_Driver/Src/stm32f2xx_hal_dac.c ****        ================================================
  86:Drivers/STM32F2xx_HAL_Driver/Src/stm32f2xx_hal_dac.c ****        [..]
  87:Drivers/STM32F2xx_HAL_Driver/Src/stm32f2xx_hal_dac.c ****        The analog output voltage on each DAC channel pin is determined
  88:Drivers/STM32F2xx_HAL_Driver/Src/stm32f2xx_hal_dac.c ****        by the following equation:
ARM GAS  /tmp/ccAK1HYA.s 			page 3


  89:Drivers/STM32F2xx_HAL_Driver/Src/stm32f2xx_hal_dac.c ****        [..]
  90:Drivers/STM32F2xx_HAL_Driver/Src/stm32f2xx_hal_dac.c ****        DAC_OUTx = VREF+ * DOR / 4095
  91:Drivers/STM32F2xx_HAL_Driver/Src/stm32f2xx_hal_dac.c ****        (+) with  DOR is the Data Output Register
  92:Drivers/STM32F2xx_HAL_Driver/Src/stm32f2xx_hal_dac.c ****        [..]
  93:Drivers/STM32F2xx_HAL_Driver/Src/stm32f2xx_hal_dac.c ****           VREF+ is the input voltage reference (refer to the device datasheet)
  94:Drivers/STM32F2xx_HAL_Driver/Src/stm32f2xx_hal_dac.c ****        [..]
  95:Drivers/STM32F2xx_HAL_Driver/Src/stm32f2xx_hal_dac.c ****         e.g. To set DAC_OUT1 to 0.7V, use
  96:Drivers/STM32F2xx_HAL_Driver/Src/stm32f2xx_hal_dac.c ****        (+) Assuming that VREF+ = 3.3V, DAC_OUT1 = (3.3 * 868) / 4095 = 0.7V
  97:Drivers/STM32F2xx_HAL_Driver/Src/stm32f2xx_hal_dac.c **** 
  98:Drivers/STM32F2xx_HAL_Driver/Src/stm32f2xx_hal_dac.c ****        *** DMA requests ***
  99:Drivers/STM32F2xx_HAL_Driver/Src/stm32f2xx_hal_dac.c ****        =====================
 100:Drivers/STM32F2xx_HAL_Driver/Src/stm32f2xx_hal_dac.c ****        [..]
 101:Drivers/STM32F2xx_HAL_Driver/Src/stm32f2xx_hal_dac.c ****        A DMA request can be generated when an external trigger (but not a software trigger)
 102:Drivers/STM32F2xx_HAL_Driver/Src/stm32f2xx_hal_dac.c ****        occurs if DMA1 requests are enabled using HAL_DAC_Start_DMA().
 103:Drivers/STM32F2xx_HAL_Driver/Src/stm32f2xx_hal_dac.c ****        DMA1 requests are mapped as following:
 104:Drivers/STM32F2xx_HAL_Driver/Src/stm32f2xx_hal_dac.c ****       (#) DAC channel1 mapped on DMA1 Stream5 channel7 which must be 
 105:Drivers/STM32F2xx_HAL_Driver/Src/stm32f2xx_hal_dac.c ****           already configured
 106:Drivers/STM32F2xx_HAL_Driver/Src/stm32f2xx_hal_dac.c ****       (#) DAC channel2 mapped on DMA1 Stream6 channel7 which must be 
 107:Drivers/STM32F2xx_HAL_Driver/Src/stm32f2xx_hal_dac.c ****           already configured
 108:Drivers/STM32F2xx_HAL_Driver/Src/stm32f2xx_hal_dac.c **** 
 109:Drivers/STM32F2xx_HAL_Driver/Src/stm32f2xx_hal_dac.c ****      [..]
 110:Drivers/STM32F2xx_HAL_Driver/Src/stm32f2xx_hal_dac.c ****     (@) For Dual mode and specific signal (Triangle and noise) generation please
 111:Drivers/STM32F2xx_HAL_Driver/Src/stm32f2xx_hal_dac.c ****         refer to Extended Features Driver description
 112:Drivers/STM32F2xx_HAL_Driver/Src/stm32f2xx_hal_dac.c **** 
 113:Drivers/STM32F2xx_HAL_Driver/Src/stm32f2xx_hal_dac.c ****                       ##### How to use this driver #####
 114:Drivers/STM32F2xx_HAL_Driver/Src/stm32f2xx_hal_dac.c ****   ==============================================================================
 115:Drivers/STM32F2xx_HAL_Driver/Src/stm32f2xx_hal_dac.c ****     [..]
 116:Drivers/STM32F2xx_HAL_Driver/Src/stm32f2xx_hal_dac.c ****       (+) DAC APB clock must be enabled to get write access to DAC
 117:Drivers/STM32F2xx_HAL_Driver/Src/stm32f2xx_hal_dac.c ****           registers using HAL_DAC_Init()
 118:Drivers/STM32F2xx_HAL_Driver/Src/stm32f2xx_hal_dac.c ****       (+) Configure DAC_OUTx (DAC_OUT1: PA4, DAC_OUT2: PA5) in analog mode.
 119:Drivers/STM32F2xx_HAL_Driver/Src/stm32f2xx_hal_dac.c ****       (+) Configure the DAC channel using HAL_DAC_ConfigChannel() function.
 120:Drivers/STM32F2xx_HAL_Driver/Src/stm32f2xx_hal_dac.c ****       (+) Enable the DAC channel using HAL_DAC_Start() or HAL_DAC_Start_DMA() functions.
 121:Drivers/STM32F2xx_HAL_Driver/Src/stm32f2xx_hal_dac.c **** 
 122:Drivers/STM32F2xx_HAL_Driver/Src/stm32f2xx_hal_dac.c **** 
 123:Drivers/STM32F2xx_HAL_Driver/Src/stm32f2xx_hal_dac.c ****      *** Polling mode IO operation ***
 124:Drivers/STM32F2xx_HAL_Driver/Src/stm32f2xx_hal_dac.c ****      =================================
 125:Drivers/STM32F2xx_HAL_Driver/Src/stm32f2xx_hal_dac.c ****      [..]
 126:Drivers/STM32F2xx_HAL_Driver/Src/stm32f2xx_hal_dac.c ****        (+) Start the DAC peripheral using HAL_DAC_Start()
 127:Drivers/STM32F2xx_HAL_Driver/Src/stm32f2xx_hal_dac.c ****        (+) To read the DAC last data output value, use the HAL_DAC_GetValue() function.
 128:Drivers/STM32F2xx_HAL_Driver/Src/stm32f2xx_hal_dac.c ****        (+) Stop the DAC peripheral using HAL_DAC_Stop()
 129:Drivers/STM32F2xx_HAL_Driver/Src/stm32f2xx_hal_dac.c **** 
 130:Drivers/STM32F2xx_HAL_Driver/Src/stm32f2xx_hal_dac.c ****      *** DMA mode IO operation ***
 131:Drivers/STM32F2xx_HAL_Driver/Src/stm32f2xx_hal_dac.c ****      ==============================
 132:Drivers/STM32F2xx_HAL_Driver/Src/stm32f2xx_hal_dac.c ****      [..]
 133:Drivers/STM32F2xx_HAL_Driver/Src/stm32f2xx_hal_dac.c ****        (+) Start the DAC peripheral using HAL_DAC_Start_DMA(), at this stage the user specify the l
 134:Drivers/STM32F2xx_HAL_Driver/Src/stm32f2xx_hal_dac.c ****            of data to be transferred at each end of conversion
 135:Drivers/STM32F2xx_HAL_Driver/Src/stm32f2xx_hal_dac.c ****            First issued trigger will start the conversion of the value previously set by HAL_DAC_Se
 136:Drivers/STM32F2xx_HAL_Driver/Src/stm32f2xx_hal_dac.c ****        (+) At the middle of data transfer HAL_DAC_ConvHalfCpltCallbackCh1() or HAL_DACEx_ConvHalfCp
 137:Drivers/STM32F2xx_HAL_Driver/Src/stm32f2xx_hal_dac.c ****            function is executed and user can add his own code by customization of function pointer
 138:Drivers/STM32F2xx_HAL_Driver/Src/stm32f2xx_hal_dac.c ****            HAL_DAC_ConvHalfCpltCallbackCh1() or HAL_DACEx_ConvHalfCpltCallbackCh2()
 139:Drivers/STM32F2xx_HAL_Driver/Src/stm32f2xx_hal_dac.c ****        (+) At The end of data transfer HAL_DAC_ConvCpltCallbackCh1() or HAL_DACEx_ConvHalfCpltCallb
 140:Drivers/STM32F2xx_HAL_Driver/Src/stm32f2xx_hal_dac.c ****            function is executed and user can add his own code by customization of function pointer
 141:Drivers/STM32F2xx_HAL_Driver/Src/stm32f2xx_hal_dac.c ****            HAL_DAC_ConvCpltCallbackCh1() or HAL_DACEx_ConvHalfCpltCallbackCh2()
 142:Drivers/STM32F2xx_HAL_Driver/Src/stm32f2xx_hal_dac.c ****        (+) In case of transfer Error, HAL_DAC_ErrorCallbackCh1() function is executed and user can
 143:Drivers/STM32F2xx_HAL_Driver/Src/stm32f2xx_hal_dac.c ****             add his own code by customization of function pointer HAL_DAC_ErrorCallbackCh1
 144:Drivers/STM32F2xx_HAL_Driver/Src/stm32f2xx_hal_dac.c ****        (+) In case of DMA underrun, DAC interruption triggers and execute internal function HAL_DAC
 145:Drivers/STM32F2xx_HAL_Driver/Src/stm32f2xx_hal_dac.c ****            HAL_DAC_DMAUnderrunCallbackCh1() or HAL_DACEx_DMAUnderrunCallbackCh2()
ARM GAS  /tmp/ccAK1HYA.s 			page 4


 146:Drivers/STM32F2xx_HAL_Driver/Src/stm32f2xx_hal_dac.c ****            function is executed and user can add his own code by customization of function pointer
 147:Drivers/STM32F2xx_HAL_Driver/Src/stm32f2xx_hal_dac.c ****            HAL_DAC_DMAUnderrunCallbackCh1() or HAL_DACEx_DMAUnderrunCallbackCh2() and
 148:Drivers/STM32F2xx_HAL_Driver/Src/stm32f2xx_hal_dac.c ****            add his own code by customization of function pointer HAL_DAC_ErrorCallbackCh1()
 149:Drivers/STM32F2xx_HAL_Driver/Src/stm32f2xx_hal_dac.c ****        (+) Stop the DAC peripheral using HAL_DAC_Stop_DMA()
 150:Drivers/STM32F2xx_HAL_Driver/Src/stm32f2xx_hal_dac.c **** 
 151:Drivers/STM32F2xx_HAL_Driver/Src/stm32f2xx_hal_dac.c ****     *** Callback registration ***
 152:Drivers/STM32F2xx_HAL_Driver/Src/stm32f2xx_hal_dac.c ****     =============================================
 153:Drivers/STM32F2xx_HAL_Driver/Src/stm32f2xx_hal_dac.c ****     [..]
 154:Drivers/STM32F2xx_HAL_Driver/Src/stm32f2xx_hal_dac.c ****       The compilation define  USE_HAL_DAC_REGISTER_CALLBACKS when set to 1
 155:Drivers/STM32F2xx_HAL_Driver/Src/stm32f2xx_hal_dac.c ****       allows the user to configure dynamically the driver callbacks.
 156:Drivers/STM32F2xx_HAL_Driver/Src/stm32f2xx_hal_dac.c **** 
 157:Drivers/STM32F2xx_HAL_Driver/Src/stm32f2xx_hal_dac.c ****     Use Functions @ref HAL_DAC_RegisterCallback() to register a user callback,
 158:Drivers/STM32F2xx_HAL_Driver/Src/stm32f2xx_hal_dac.c ****       it allows to register following callbacks:
 159:Drivers/STM32F2xx_HAL_Driver/Src/stm32f2xx_hal_dac.c ****       (+) ConvCpltCallbackCh1     : callback when a half transfer is completed on Ch1.
 160:Drivers/STM32F2xx_HAL_Driver/Src/stm32f2xx_hal_dac.c ****       (+) ConvHalfCpltCallbackCh1 : callback when a transfer is completed on Ch1.
 161:Drivers/STM32F2xx_HAL_Driver/Src/stm32f2xx_hal_dac.c ****       (+) ErrorCallbackCh1        : callback when an error occurs on Ch1.
 162:Drivers/STM32F2xx_HAL_Driver/Src/stm32f2xx_hal_dac.c ****       (+) DMAUnderrunCallbackCh1  : callback when an underrun error occurs on Ch1.
 163:Drivers/STM32F2xx_HAL_Driver/Src/stm32f2xx_hal_dac.c ****       (+) ConvCpltCallbackCh2     : callback when a half transfer is completed on Ch2.
 164:Drivers/STM32F2xx_HAL_Driver/Src/stm32f2xx_hal_dac.c ****       (+) ConvHalfCpltCallbackCh2 : callback when a transfer is completed on Ch2.
 165:Drivers/STM32F2xx_HAL_Driver/Src/stm32f2xx_hal_dac.c ****       (+) ErrorCallbackCh2        : callback when an error occurs on Ch2.
 166:Drivers/STM32F2xx_HAL_Driver/Src/stm32f2xx_hal_dac.c ****       (+) DMAUnderrunCallbackCh2  : callback when an underrun error occurs on Ch2.
 167:Drivers/STM32F2xx_HAL_Driver/Src/stm32f2xx_hal_dac.c ****       (+) MspInitCallback         : DAC MspInit.
 168:Drivers/STM32F2xx_HAL_Driver/Src/stm32f2xx_hal_dac.c ****       (+) MspDeInitCallback       : DAC MspdeInit.
 169:Drivers/STM32F2xx_HAL_Driver/Src/stm32f2xx_hal_dac.c ****       This function takes as parameters the HAL peripheral handle, the Callback ID
 170:Drivers/STM32F2xx_HAL_Driver/Src/stm32f2xx_hal_dac.c ****       and a pointer to the user callback function.
 171:Drivers/STM32F2xx_HAL_Driver/Src/stm32f2xx_hal_dac.c **** 
 172:Drivers/STM32F2xx_HAL_Driver/Src/stm32f2xx_hal_dac.c ****     Use function @ref HAL_DAC_UnRegisterCallback() to reset a callback to the default
 173:Drivers/STM32F2xx_HAL_Driver/Src/stm32f2xx_hal_dac.c ****       weak (surcharged) function. It allows to reset following callbacks:
 174:Drivers/STM32F2xx_HAL_Driver/Src/stm32f2xx_hal_dac.c ****       (+) ConvCpltCallbackCh1     : callback when a half transfer is completed on Ch1.
 175:Drivers/STM32F2xx_HAL_Driver/Src/stm32f2xx_hal_dac.c ****       (+) ConvHalfCpltCallbackCh1 : callback when a transfer is completed on Ch1.
 176:Drivers/STM32F2xx_HAL_Driver/Src/stm32f2xx_hal_dac.c ****       (+) ErrorCallbackCh1        : callback when an error occurs on Ch1.
 177:Drivers/STM32F2xx_HAL_Driver/Src/stm32f2xx_hal_dac.c ****       (+) DMAUnderrunCallbackCh1  : callback when an underrun error occurs on Ch1.
 178:Drivers/STM32F2xx_HAL_Driver/Src/stm32f2xx_hal_dac.c ****       (+) ConvCpltCallbackCh2     : callback when a half transfer is completed on Ch2.
 179:Drivers/STM32F2xx_HAL_Driver/Src/stm32f2xx_hal_dac.c ****       (+) ConvHalfCpltCallbackCh2 : callback when a transfer is completed on Ch2.
 180:Drivers/STM32F2xx_HAL_Driver/Src/stm32f2xx_hal_dac.c ****       (+) ErrorCallbackCh2        : callback when an error occurs on Ch2.
 181:Drivers/STM32F2xx_HAL_Driver/Src/stm32f2xx_hal_dac.c ****       (+) DMAUnderrunCallbackCh2  : callback when an underrun error occurs on Ch2.
 182:Drivers/STM32F2xx_HAL_Driver/Src/stm32f2xx_hal_dac.c ****       (+) MspInitCallback         : DAC MspInit.
 183:Drivers/STM32F2xx_HAL_Driver/Src/stm32f2xx_hal_dac.c ****       (+) MspDeInitCallback       : DAC MspdeInit.
 184:Drivers/STM32F2xx_HAL_Driver/Src/stm32f2xx_hal_dac.c ****       (+) All Callbacks
 185:Drivers/STM32F2xx_HAL_Driver/Src/stm32f2xx_hal_dac.c ****       This function) takes as parameters the HAL peripheral handle and the Callback ID.
 186:Drivers/STM32F2xx_HAL_Driver/Src/stm32f2xx_hal_dac.c **** 
 187:Drivers/STM32F2xx_HAL_Driver/Src/stm32f2xx_hal_dac.c ****       By default, after the @ref HAL_DAC_Init and if the state is HAL_DAC_STATE_RESET
 188:Drivers/STM32F2xx_HAL_Driver/Src/stm32f2xx_hal_dac.c ****       all callbacks are reset to the corresponding legacy weak (surcharged) functions.
 189:Drivers/STM32F2xx_HAL_Driver/Src/stm32f2xx_hal_dac.c ****       Exception done for MspInit and MspDeInit callbacks that are respectively
 190:Drivers/STM32F2xx_HAL_Driver/Src/stm32f2xx_hal_dac.c ****       reset to the legacy weak (surcharged) functions in the @ref HAL_DAC_Init
 191:Drivers/STM32F2xx_HAL_Driver/Src/stm32f2xx_hal_dac.c ****       and @ref  HAL_DAC_DeInit only when these callbacks are null (not registered beforehand).
 192:Drivers/STM32F2xx_HAL_Driver/Src/stm32f2xx_hal_dac.c ****       If not, MspInit or MspDeInit are not null, the @ref HAL_DAC_Init and @ref HAL_DAC_DeInit
 193:Drivers/STM32F2xx_HAL_Driver/Src/stm32f2xx_hal_dac.c ****       keep and use the user MspInit/MspDeInit callbacks (registered beforehand)
 194:Drivers/STM32F2xx_HAL_Driver/Src/stm32f2xx_hal_dac.c **** 
 195:Drivers/STM32F2xx_HAL_Driver/Src/stm32f2xx_hal_dac.c ****       Callbacks can be registered/unregistered in READY state only.
 196:Drivers/STM32F2xx_HAL_Driver/Src/stm32f2xx_hal_dac.c ****       Exception done for MspInit/MspDeInit callbacks that can be registered/unregistered
 197:Drivers/STM32F2xx_HAL_Driver/Src/stm32f2xx_hal_dac.c ****       in READY or RESET state, thus registered (user) MspInit/DeInit callbacks can be used
 198:Drivers/STM32F2xx_HAL_Driver/Src/stm32f2xx_hal_dac.c ****       during the Init/DeInit.
 199:Drivers/STM32F2xx_HAL_Driver/Src/stm32f2xx_hal_dac.c ****       In that case first register the MspInit/MspDeInit user callbacks
 200:Drivers/STM32F2xx_HAL_Driver/Src/stm32f2xx_hal_dac.c ****       using @ref HAL_DAC_RegisterCallback before calling @ref HAL_DAC_DeInit
 201:Drivers/STM32F2xx_HAL_Driver/Src/stm32f2xx_hal_dac.c ****       or @ref HAL_DAC_Init function.
 202:Drivers/STM32F2xx_HAL_Driver/Src/stm32f2xx_hal_dac.c **** 
ARM GAS  /tmp/ccAK1HYA.s 			page 5


 203:Drivers/STM32F2xx_HAL_Driver/Src/stm32f2xx_hal_dac.c ****       When The compilation define USE_HAL_DAC_REGISTER_CALLBACKS is set to 0 or
 204:Drivers/STM32F2xx_HAL_Driver/Src/stm32f2xx_hal_dac.c ****       not defined, the callback registering feature is not available
 205:Drivers/STM32F2xx_HAL_Driver/Src/stm32f2xx_hal_dac.c ****       and weak (surcharged) callbacks are used.
 206:Drivers/STM32F2xx_HAL_Driver/Src/stm32f2xx_hal_dac.c **** 
 207:Drivers/STM32F2xx_HAL_Driver/Src/stm32f2xx_hal_dac.c ****      *** DAC HAL driver macros list ***
 208:Drivers/STM32F2xx_HAL_Driver/Src/stm32f2xx_hal_dac.c ****      =============================================
 209:Drivers/STM32F2xx_HAL_Driver/Src/stm32f2xx_hal_dac.c ****      [..]
 210:Drivers/STM32F2xx_HAL_Driver/Src/stm32f2xx_hal_dac.c ****        Below the list of most used macros in DAC HAL driver.
 211:Drivers/STM32F2xx_HAL_Driver/Src/stm32f2xx_hal_dac.c **** 
 212:Drivers/STM32F2xx_HAL_Driver/Src/stm32f2xx_hal_dac.c ****       (+) __HAL_DAC_ENABLE : Enable the DAC peripheral
 213:Drivers/STM32F2xx_HAL_Driver/Src/stm32f2xx_hal_dac.c ****       (+) __HAL_DAC_DISABLE : Disable the DAC peripheral
 214:Drivers/STM32F2xx_HAL_Driver/Src/stm32f2xx_hal_dac.c ****       (+) __HAL_DAC_CLEAR_FLAG: Clear the DAC's pending flags
 215:Drivers/STM32F2xx_HAL_Driver/Src/stm32f2xx_hal_dac.c ****       (+) __HAL_DAC_GET_FLAG: Get the selected DAC's flag status
 216:Drivers/STM32F2xx_HAL_Driver/Src/stm32f2xx_hal_dac.c **** 
 217:Drivers/STM32F2xx_HAL_Driver/Src/stm32f2xx_hal_dac.c ****      [..]
 218:Drivers/STM32F2xx_HAL_Driver/Src/stm32f2xx_hal_dac.c ****       (@) You can refer to the DAC HAL driver header file for more useful macros
 219:Drivers/STM32F2xx_HAL_Driver/Src/stm32f2xx_hal_dac.c **** 
 220:Drivers/STM32F2xx_HAL_Driver/Src/stm32f2xx_hal_dac.c **** @endverbatim
 221:Drivers/STM32F2xx_HAL_Driver/Src/stm32f2xx_hal_dac.c ****   ******************************************************************************
 222:Drivers/STM32F2xx_HAL_Driver/Src/stm32f2xx_hal_dac.c ****   * @attention
 223:Drivers/STM32F2xx_HAL_Driver/Src/stm32f2xx_hal_dac.c ****   *
 224:Drivers/STM32F2xx_HAL_Driver/Src/stm32f2xx_hal_dac.c ****   * <h2><center>&copy; Copyright (c) 2016 STMicroelectronics.
 225:Drivers/STM32F2xx_HAL_Driver/Src/stm32f2xx_hal_dac.c ****   * All rights reserved.</center></h2>
 226:Drivers/STM32F2xx_HAL_Driver/Src/stm32f2xx_hal_dac.c ****   *
 227:Drivers/STM32F2xx_HAL_Driver/Src/stm32f2xx_hal_dac.c ****   * This software component is licensed by ST under BSD 3-Clause license,
 228:Drivers/STM32F2xx_HAL_Driver/Src/stm32f2xx_hal_dac.c ****   * the "License"; You may not use this file except in compliance with the
 229:Drivers/STM32F2xx_HAL_Driver/Src/stm32f2xx_hal_dac.c ****   * License. You may obtain a copy of the License at:
 230:Drivers/STM32F2xx_HAL_Driver/Src/stm32f2xx_hal_dac.c ****   *                        opensource.org/licenses/BSD-3-Clause
 231:Drivers/STM32F2xx_HAL_Driver/Src/stm32f2xx_hal_dac.c ****   *
 232:Drivers/STM32F2xx_HAL_Driver/Src/stm32f2xx_hal_dac.c ****   ******************************************************************************
 233:Drivers/STM32F2xx_HAL_Driver/Src/stm32f2xx_hal_dac.c ****   */
 234:Drivers/STM32F2xx_HAL_Driver/Src/stm32f2xx_hal_dac.c **** 
 235:Drivers/STM32F2xx_HAL_Driver/Src/stm32f2xx_hal_dac.c **** /* Includes ------------------------------------------------------------------*/
 236:Drivers/STM32F2xx_HAL_Driver/Src/stm32f2xx_hal_dac.c **** #include "stm32f2xx_hal.h"
 237:Drivers/STM32F2xx_HAL_Driver/Src/stm32f2xx_hal_dac.c **** 
 238:Drivers/STM32F2xx_HAL_Driver/Src/stm32f2xx_hal_dac.c **** /** @addtogroup STM32F2xx_HAL_Driver
 239:Drivers/STM32F2xx_HAL_Driver/Src/stm32f2xx_hal_dac.c ****   * @{
 240:Drivers/STM32F2xx_HAL_Driver/Src/stm32f2xx_hal_dac.c ****   */
 241:Drivers/STM32F2xx_HAL_Driver/Src/stm32f2xx_hal_dac.c **** 
 242:Drivers/STM32F2xx_HAL_Driver/Src/stm32f2xx_hal_dac.c **** #ifdef HAL_DAC_MODULE_ENABLED
 243:Drivers/STM32F2xx_HAL_Driver/Src/stm32f2xx_hal_dac.c **** #if defined(DAC)
 244:Drivers/STM32F2xx_HAL_Driver/Src/stm32f2xx_hal_dac.c **** 
 245:Drivers/STM32F2xx_HAL_Driver/Src/stm32f2xx_hal_dac.c **** /** @defgroup DAC DAC
 246:Drivers/STM32F2xx_HAL_Driver/Src/stm32f2xx_hal_dac.c ****   * @brief DAC driver modules
 247:Drivers/STM32F2xx_HAL_Driver/Src/stm32f2xx_hal_dac.c ****   * @{
 248:Drivers/STM32F2xx_HAL_Driver/Src/stm32f2xx_hal_dac.c ****   */
 249:Drivers/STM32F2xx_HAL_Driver/Src/stm32f2xx_hal_dac.c **** 
 250:Drivers/STM32F2xx_HAL_Driver/Src/stm32f2xx_hal_dac.c **** /* Private typedef -----------------------------------------------------------*/
 251:Drivers/STM32F2xx_HAL_Driver/Src/stm32f2xx_hal_dac.c **** /* Private define ------------------------------------------------------------*/
 252:Drivers/STM32F2xx_HAL_Driver/Src/stm32f2xx_hal_dac.c **** /* Private constants ---------------------------------------------------------*/
 253:Drivers/STM32F2xx_HAL_Driver/Src/stm32f2xx_hal_dac.c **** /* Private macro -------------------------------------------------------------*/
 254:Drivers/STM32F2xx_HAL_Driver/Src/stm32f2xx_hal_dac.c **** /* Private variables ---------------------------------------------------------*/
 255:Drivers/STM32F2xx_HAL_Driver/Src/stm32f2xx_hal_dac.c **** /* Private function prototypes -----------------------------------------------*/
 256:Drivers/STM32F2xx_HAL_Driver/Src/stm32f2xx_hal_dac.c **** /* Exported functions -------------------------------------------------------*/
 257:Drivers/STM32F2xx_HAL_Driver/Src/stm32f2xx_hal_dac.c **** 
 258:Drivers/STM32F2xx_HAL_Driver/Src/stm32f2xx_hal_dac.c **** /** @defgroup DAC_Exported_Functions DAC Exported Functions
 259:Drivers/STM32F2xx_HAL_Driver/Src/stm32f2xx_hal_dac.c ****   * @{
ARM GAS  /tmp/ccAK1HYA.s 			page 6


 260:Drivers/STM32F2xx_HAL_Driver/Src/stm32f2xx_hal_dac.c ****   */
 261:Drivers/STM32F2xx_HAL_Driver/Src/stm32f2xx_hal_dac.c **** 
 262:Drivers/STM32F2xx_HAL_Driver/Src/stm32f2xx_hal_dac.c **** /** @defgroup DAC_Exported_Functions_Group1 Initialization and de-initialization functions
 263:Drivers/STM32F2xx_HAL_Driver/Src/stm32f2xx_hal_dac.c ****   *  @brief    Initialization and Configuration functions
 264:Drivers/STM32F2xx_HAL_Driver/Src/stm32f2xx_hal_dac.c ****   *
 265:Drivers/STM32F2xx_HAL_Driver/Src/stm32f2xx_hal_dac.c **** @verbatim
 266:Drivers/STM32F2xx_HAL_Driver/Src/stm32f2xx_hal_dac.c ****   ==============================================================================
 267:Drivers/STM32F2xx_HAL_Driver/Src/stm32f2xx_hal_dac.c ****               ##### Initialization and de-initialization functions #####
 268:Drivers/STM32F2xx_HAL_Driver/Src/stm32f2xx_hal_dac.c ****   ==============================================================================
 269:Drivers/STM32F2xx_HAL_Driver/Src/stm32f2xx_hal_dac.c ****     [..]  This section provides functions allowing to:
 270:Drivers/STM32F2xx_HAL_Driver/Src/stm32f2xx_hal_dac.c ****       (+) Initialize and configure the DAC.
 271:Drivers/STM32F2xx_HAL_Driver/Src/stm32f2xx_hal_dac.c ****       (+) De-initialize the DAC.
 272:Drivers/STM32F2xx_HAL_Driver/Src/stm32f2xx_hal_dac.c **** 
 273:Drivers/STM32F2xx_HAL_Driver/Src/stm32f2xx_hal_dac.c **** @endverbatim
 274:Drivers/STM32F2xx_HAL_Driver/Src/stm32f2xx_hal_dac.c ****   * @{
 275:Drivers/STM32F2xx_HAL_Driver/Src/stm32f2xx_hal_dac.c ****   */
 276:Drivers/STM32F2xx_HAL_Driver/Src/stm32f2xx_hal_dac.c **** 
 277:Drivers/STM32F2xx_HAL_Driver/Src/stm32f2xx_hal_dac.c **** /**
 278:Drivers/STM32F2xx_HAL_Driver/Src/stm32f2xx_hal_dac.c ****   * @brief  Initialize the DAC peripheral according to the specified parameters
 279:Drivers/STM32F2xx_HAL_Driver/Src/stm32f2xx_hal_dac.c ****   *         in the DAC_InitStruct and initialize the associated handle.
 280:Drivers/STM32F2xx_HAL_Driver/Src/stm32f2xx_hal_dac.c ****   * @param  hdac pointer to a DAC_HandleTypeDef structure that contains
 281:Drivers/STM32F2xx_HAL_Driver/Src/stm32f2xx_hal_dac.c ****   *         the configuration information for the specified DAC.
 282:Drivers/STM32F2xx_HAL_Driver/Src/stm32f2xx_hal_dac.c ****   * @retval HAL status
 283:Drivers/STM32F2xx_HAL_Driver/Src/stm32f2xx_hal_dac.c ****   */
 284:Drivers/STM32F2xx_HAL_Driver/Src/stm32f2xx_hal_dac.c **** HAL_StatusTypeDef HAL_DAC_Init(DAC_HandleTypeDef *hdac)
 285:Drivers/STM32F2xx_HAL_Driver/Src/stm32f2xx_hal_dac.c **** {
 286:Drivers/STM32F2xx_HAL_Driver/Src/stm32f2xx_hal_dac.c ****   /* Check DAC handle */
 287:Drivers/STM32F2xx_HAL_Driver/Src/stm32f2xx_hal_dac.c ****   if (hdac == NULL)
 288:Drivers/STM32F2xx_HAL_Driver/Src/stm32f2xx_hal_dac.c ****   {
 289:Drivers/STM32F2xx_HAL_Driver/Src/stm32f2xx_hal_dac.c ****     return HAL_ERROR;
 290:Drivers/STM32F2xx_HAL_Driver/Src/stm32f2xx_hal_dac.c ****   }
 291:Drivers/STM32F2xx_HAL_Driver/Src/stm32f2xx_hal_dac.c ****   /* Check the parameters */
 292:Drivers/STM32F2xx_HAL_Driver/Src/stm32f2xx_hal_dac.c ****   assert_param(IS_DAC_ALL_INSTANCE(hdac->Instance));
 293:Drivers/STM32F2xx_HAL_Driver/Src/stm32f2xx_hal_dac.c **** 
 294:Drivers/STM32F2xx_HAL_Driver/Src/stm32f2xx_hal_dac.c ****   if (hdac->State == HAL_DAC_STATE_RESET)
 295:Drivers/STM32F2xx_HAL_Driver/Src/stm32f2xx_hal_dac.c ****   {
 296:Drivers/STM32F2xx_HAL_Driver/Src/stm32f2xx_hal_dac.c **** #if (USE_HAL_DAC_REGISTER_CALLBACKS == 1)
 297:Drivers/STM32F2xx_HAL_Driver/Src/stm32f2xx_hal_dac.c ****     /* Init the DAC Callback settings */
 298:Drivers/STM32F2xx_HAL_Driver/Src/stm32f2xx_hal_dac.c ****     hdac->ConvCpltCallbackCh1           = HAL_DAC_ConvCpltCallbackCh1;
 299:Drivers/STM32F2xx_HAL_Driver/Src/stm32f2xx_hal_dac.c ****     hdac->ConvHalfCpltCallbackCh1       = HAL_DAC_ConvHalfCpltCallbackCh1;
 300:Drivers/STM32F2xx_HAL_Driver/Src/stm32f2xx_hal_dac.c ****     hdac->ErrorCallbackCh1              = HAL_DAC_ErrorCallbackCh1;
 301:Drivers/STM32F2xx_HAL_Driver/Src/stm32f2xx_hal_dac.c ****     hdac->DMAUnderrunCallbackCh1        = HAL_DAC_DMAUnderrunCallbackCh1;
 302:Drivers/STM32F2xx_HAL_Driver/Src/stm32f2xx_hal_dac.c **** 
 303:Drivers/STM32F2xx_HAL_Driver/Src/stm32f2xx_hal_dac.c ****     hdac->ConvCpltCallbackCh2           = HAL_DACEx_ConvCpltCallbackCh2;
 304:Drivers/STM32F2xx_HAL_Driver/Src/stm32f2xx_hal_dac.c ****     hdac->ConvHalfCpltCallbackCh2       = HAL_DACEx_ConvHalfCpltCallbackCh2;
 305:Drivers/STM32F2xx_HAL_Driver/Src/stm32f2xx_hal_dac.c ****     hdac->ErrorCallbackCh2              = HAL_DACEx_ErrorCallbackCh2;
 306:Drivers/STM32F2xx_HAL_Driver/Src/stm32f2xx_hal_dac.c ****     hdac->DMAUnderrunCallbackCh2        = HAL_DACEx_DMAUnderrunCallbackCh2;
 307:Drivers/STM32F2xx_HAL_Driver/Src/stm32f2xx_hal_dac.c **** 
 308:Drivers/STM32F2xx_HAL_Driver/Src/stm32f2xx_hal_dac.c ****     if (hdac->MspInitCallback == NULL)
 309:Drivers/STM32F2xx_HAL_Driver/Src/stm32f2xx_hal_dac.c ****     {
 310:Drivers/STM32F2xx_HAL_Driver/Src/stm32f2xx_hal_dac.c ****       hdac->MspInitCallback             = HAL_DAC_MspInit;
 311:Drivers/STM32F2xx_HAL_Driver/Src/stm32f2xx_hal_dac.c ****     }
 312:Drivers/STM32F2xx_HAL_Driver/Src/stm32f2xx_hal_dac.c **** #endif /* USE_HAL_DAC_REGISTER_CALLBACKS */
 313:Drivers/STM32F2xx_HAL_Driver/Src/stm32f2xx_hal_dac.c **** 
 314:Drivers/STM32F2xx_HAL_Driver/Src/stm32f2xx_hal_dac.c ****     /* Allocate lock resource and initialize it */
 315:Drivers/STM32F2xx_HAL_Driver/Src/stm32f2xx_hal_dac.c ****     hdac->Lock = HAL_UNLOCKED;
 316:Drivers/STM32F2xx_HAL_Driver/Src/stm32f2xx_hal_dac.c **** 
ARM GAS  /tmp/ccAK1HYA.s 			page 7


 317:Drivers/STM32F2xx_HAL_Driver/Src/stm32f2xx_hal_dac.c **** #if (USE_HAL_DAC_REGISTER_CALLBACKS == 1)
 318:Drivers/STM32F2xx_HAL_Driver/Src/stm32f2xx_hal_dac.c ****     /* Init the low level hardware */
 319:Drivers/STM32F2xx_HAL_Driver/Src/stm32f2xx_hal_dac.c ****     hdac->MspInitCallback(hdac);
 320:Drivers/STM32F2xx_HAL_Driver/Src/stm32f2xx_hal_dac.c **** #else
 321:Drivers/STM32F2xx_HAL_Driver/Src/stm32f2xx_hal_dac.c ****     /* Init the low level hardware */
 322:Drivers/STM32F2xx_HAL_Driver/Src/stm32f2xx_hal_dac.c ****     HAL_DAC_MspInit(hdac);
 323:Drivers/STM32F2xx_HAL_Driver/Src/stm32f2xx_hal_dac.c **** #endif /* USE_HAL_DAC_REGISTER_CALLBACKS */
 324:Drivers/STM32F2xx_HAL_Driver/Src/stm32f2xx_hal_dac.c ****   }
 325:Drivers/STM32F2xx_HAL_Driver/Src/stm32f2xx_hal_dac.c **** 
 326:Drivers/STM32F2xx_HAL_Driver/Src/stm32f2xx_hal_dac.c ****   /* Initialize the DAC state*/
 327:Drivers/STM32F2xx_HAL_Driver/Src/stm32f2xx_hal_dac.c ****   hdac->State = HAL_DAC_STATE_BUSY;
 328:Drivers/STM32F2xx_HAL_Driver/Src/stm32f2xx_hal_dac.c **** 
 329:Drivers/STM32F2xx_HAL_Driver/Src/stm32f2xx_hal_dac.c ****   /* Set DAC error code to none */
 330:Drivers/STM32F2xx_HAL_Driver/Src/stm32f2xx_hal_dac.c ****   hdac->ErrorCode = HAL_DAC_ERROR_NONE;
 331:Drivers/STM32F2xx_HAL_Driver/Src/stm32f2xx_hal_dac.c **** 
 332:Drivers/STM32F2xx_HAL_Driver/Src/stm32f2xx_hal_dac.c ****   /* Initialize the DAC state*/
 333:Drivers/STM32F2xx_HAL_Driver/Src/stm32f2xx_hal_dac.c ****   hdac->State = HAL_DAC_STATE_READY;
 334:Drivers/STM32F2xx_HAL_Driver/Src/stm32f2xx_hal_dac.c **** 
 335:Drivers/STM32F2xx_HAL_Driver/Src/stm32f2xx_hal_dac.c ****   /* Return function status */
 336:Drivers/STM32F2xx_HAL_Driver/Src/stm32f2xx_hal_dac.c ****   return HAL_OK;
 337:Drivers/STM32F2xx_HAL_Driver/Src/stm32f2xx_hal_dac.c **** }
 338:Drivers/STM32F2xx_HAL_Driver/Src/stm32f2xx_hal_dac.c **** 
 339:Drivers/STM32F2xx_HAL_Driver/Src/stm32f2xx_hal_dac.c **** /**
 340:Drivers/STM32F2xx_HAL_Driver/Src/stm32f2xx_hal_dac.c ****   * @brief  Deinitialize the DAC peripheral registers to their default reset values.
 341:Drivers/STM32F2xx_HAL_Driver/Src/stm32f2xx_hal_dac.c ****   * @param  hdac pointer to a DAC_HandleTypeDef structure that contains
 342:Drivers/STM32F2xx_HAL_Driver/Src/stm32f2xx_hal_dac.c ****   *         the configuration information for the specified DAC.
 343:Drivers/STM32F2xx_HAL_Driver/Src/stm32f2xx_hal_dac.c ****   * @retval HAL status
 344:Drivers/STM32F2xx_HAL_Driver/Src/stm32f2xx_hal_dac.c ****   */
 345:Drivers/STM32F2xx_HAL_Driver/Src/stm32f2xx_hal_dac.c **** HAL_StatusTypeDef HAL_DAC_DeInit(DAC_HandleTypeDef *hdac)
 346:Drivers/STM32F2xx_HAL_Driver/Src/stm32f2xx_hal_dac.c **** {
 347:Drivers/STM32F2xx_HAL_Driver/Src/stm32f2xx_hal_dac.c ****   /* Check DAC handle */
 348:Drivers/STM32F2xx_HAL_Driver/Src/stm32f2xx_hal_dac.c ****   if (hdac == NULL)
 349:Drivers/STM32F2xx_HAL_Driver/Src/stm32f2xx_hal_dac.c ****   {
 350:Drivers/STM32F2xx_HAL_Driver/Src/stm32f2xx_hal_dac.c ****     return HAL_ERROR;
 351:Drivers/STM32F2xx_HAL_Driver/Src/stm32f2xx_hal_dac.c ****   }
 352:Drivers/STM32F2xx_HAL_Driver/Src/stm32f2xx_hal_dac.c **** 
 353:Drivers/STM32F2xx_HAL_Driver/Src/stm32f2xx_hal_dac.c ****   /* Check the parameters */
 354:Drivers/STM32F2xx_HAL_Driver/Src/stm32f2xx_hal_dac.c ****   assert_param(IS_DAC_ALL_INSTANCE(hdac->Instance));
 355:Drivers/STM32F2xx_HAL_Driver/Src/stm32f2xx_hal_dac.c **** 
 356:Drivers/STM32F2xx_HAL_Driver/Src/stm32f2xx_hal_dac.c ****   /* Change DAC state */
 357:Drivers/STM32F2xx_HAL_Driver/Src/stm32f2xx_hal_dac.c ****   hdac->State = HAL_DAC_STATE_BUSY;
 358:Drivers/STM32F2xx_HAL_Driver/Src/stm32f2xx_hal_dac.c **** 
 359:Drivers/STM32F2xx_HAL_Driver/Src/stm32f2xx_hal_dac.c **** #if (USE_HAL_DAC_REGISTER_CALLBACKS == 1)
 360:Drivers/STM32F2xx_HAL_Driver/Src/stm32f2xx_hal_dac.c ****   if (hdac->MspDeInitCallback == NULL)
 361:Drivers/STM32F2xx_HAL_Driver/Src/stm32f2xx_hal_dac.c ****   {
 362:Drivers/STM32F2xx_HAL_Driver/Src/stm32f2xx_hal_dac.c ****     hdac->MspDeInitCallback = HAL_DAC_MspDeInit;
 363:Drivers/STM32F2xx_HAL_Driver/Src/stm32f2xx_hal_dac.c ****   }
 364:Drivers/STM32F2xx_HAL_Driver/Src/stm32f2xx_hal_dac.c ****   /* DeInit the low level hardware */
 365:Drivers/STM32F2xx_HAL_Driver/Src/stm32f2xx_hal_dac.c ****   hdac->MspDeInitCallback(hdac);
 366:Drivers/STM32F2xx_HAL_Driver/Src/stm32f2xx_hal_dac.c **** #else
 367:Drivers/STM32F2xx_HAL_Driver/Src/stm32f2xx_hal_dac.c ****   /* DeInit the low level hardware */
 368:Drivers/STM32F2xx_HAL_Driver/Src/stm32f2xx_hal_dac.c ****   HAL_DAC_MspDeInit(hdac);
 369:Drivers/STM32F2xx_HAL_Driver/Src/stm32f2xx_hal_dac.c **** #endif /* USE_HAL_DAC_REGISTER_CALLBACKS */
 370:Drivers/STM32F2xx_HAL_Driver/Src/stm32f2xx_hal_dac.c **** 
 371:Drivers/STM32F2xx_HAL_Driver/Src/stm32f2xx_hal_dac.c ****   /* Set DAC error code to none */
 372:Drivers/STM32F2xx_HAL_Driver/Src/stm32f2xx_hal_dac.c ****   hdac->ErrorCode = HAL_DAC_ERROR_NONE;
 373:Drivers/STM32F2xx_HAL_Driver/Src/stm32f2xx_hal_dac.c **** 
ARM GAS  /tmp/ccAK1HYA.s 			page 8


 374:Drivers/STM32F2xx_HAL_Driver/Src/stm32f2xx_hal_dac.c ****   /* Change DAC state */
 375:Drivers/STM32F2xx_HAL_Driver/Src/stm32f2xx_hal_dac.c ****   hdac->State = HAL_DAC_STATE_RESET;
 376:Drivers/STM32F2xx_HAL_Driver/Src/stm32f2xx_hal_dac.c **** 
 377:Drivers/STM32F2xx_HAL_Driver/Src/stm32f2xx_hal_dac.c ****   /* Release Lock */
 378:Drivers/STM32F2xx_HAL_Driver/Src/stm32f2xx_hal_dac.c ****   __HAL_UNLOCK(hdac);
 379:Drivers/STM32F2xx_HAL_Driver/Src/stm32f2xx_hal_dac.c **** 
 380:Drivers/STM32F2xx_HAL_Driver/Src/stm32f2xx_hal_dac.c ****   /* Return function status */
 381:Drivers/STM32F2xx_HAL_Driver/Src/stm32f2xx_hal_dac.c ****   return HAL_OK;
 382:Drivers/STM32F2xx_HAL_Driver/Src/stm32f2xx_hal_dac.c **** }
 383:Drivers/STM32F2xx_HAL_Driver/Src/stm32f2xx_hal_dac.c **** 
 384:Drivers/STM32F2xx_HAL_Driver/Src/stm32f2xx_hal_dac.c **** /**
 385:Drivers/STM32F2xx_HAL_Driver/Src/stm32f2xx_hal_dac.c ****   * @brief  Initialize the DAC MSP.
 386:Drivers/STM32F2xx_HAL_Driver/Src/stm32f2xx_hal_dac.c ****   * @param  hdac pointer to a DAC_HandleTypeDef structure that contains
 387:Drivers/STM32F2xx_HAL_Driver/Src/stm32f2xx_hal_dac.c ****   *         the configuration information for the specified DAC.
 388:Drivers/STM32F2xx_HAL_Driver/Src/stm32f2xx_hal_dac.c ****   * @retval None
 389:Drivers/STM32F2xx_HAL_Driver/Src/stm32f2xx_hal_dac.c ****   */
 390:Drivers/STM32F2xx_HAL_Driver/Src/stm32f2xx_hal_dac.c **** __weak void HAL_DAC_MspInit(DAC_HandleTypeDef *hdac)
 391:Drivers/STM32F2xx_HAL_Driver/Src/stm32f2xx_hal_dac.c **** {
  28              		.loc 1 391 1 view -0
  29              		.cfi_startproc
  30              		@ args = 0, pretend = 0, frame = 0
  31              		@ frame_needed = 0, uses_anonymous_args = 0
  32              		@ link register save eliminated.
 392:Drivers/STM32F2xx_HAL_Driver/Src/stm32f2xx_hal_dac.c ****   /* Prevent unused argument(s) compilation warning */
 393:Drivers/STM32F2xx_HAL_Driver/Src/stm32f2xx_hal_dac.c ****   UNUSED(hdac);
  33              		.loc 1 393 3 view .LVU1
 394:Drivers/STM32F2xx_HAL_Driver/Src/stm32f2xx_hal_dac.c **** 
 395:Drivers/STM32F2xx_HAL_Driver/Src/stm32f2xx_hal_dac.c ****   /* NOTE : This function should not be modified, when the callback is needed,
 396:Drivers/STM32F2xx_HAL_Driver/Src/stm32f2xx_hal_dac.c ****             the HAL_DAC_MspInit could be implemented in the user file
 397:Drivers/STM32F2xx_HAL_Driver/Src/stm32f2xx_hal_dac.c ****    */
 398:Drivers/STM32F2xx_HAL_Driver/Src/stm32f2xx_hal_dac.c **** }
  34              		.loc 1 398 1 is_stmt 0 view .LVU2
  35 0000 7047     		bx	lr
  36              		.cfi_endproc
  37              	.LFE74:
  39              		.section	.text.HAL_DAC_Init,"ax",%progbits
  40              		.align	1
  41              		.global	HAL_DAC_Init
  42              		.syntax unified
  43              		.thumb
  44              		.thumb_func
  45              		.fpu softvfp
  47              	HAL_DAC_Init:
  48              	.LVL1:
  49              	.LFB72:
 285:Drivers/STM32F2xx_HAL_Driver/Src/stm32f2xx_hal_dac.c ****   /* Check DAC handle */
  50              		.loc 1 285 1 is_stmt 1 view -0
  51              		.cfi_startproc
  52              		@ args = 0, pretend = 0, frame = 0
  53              		@ frame_needed = 0, uses_anonymous_args = 0
 287:Drivers/STM32F2xx_HAL_Driver/Src/stm32f2xx_hal_dac.c ****   {
  54              		.loc 1 287 3 view .LVU4
 287:Drivers/STM32F2xx_HAL_Driver/Src/stm32f2xx_hal_dac.c ****   {
  55              		.loc 1 287 6 is_stmt 0 view .LVU5
  56 0000 70B1     		cbz	r0, .L5
 285:Drivers/STM32F2xx_HAL_Driver/Src/stm32f2xx_hal_dac.c ****   /* Check DAC handle */
  57              		.loc 1 285 1 view .LVU6
ARM GAS  /tmp/ccAK1HYA.s 			page 9


  58 0002 10B5     		push	{r4, lr}
  59              	.LCFI0:
  60              		.cfi_def_cfa_offset 8
  61              		.cfi_offset 4, -8
  62              		.cfi_offset 14, -4
  63 0004 0446     		mov	r4, r0
 292:Drivers/STM32F2xx_HAL_Driver/Src/stm32f2xx_hal_dac.c **** 
  64              		.loc 1 292 3 is_stmt 1 view .LVU7
 294:Drivers/STM32F2xx_HAL_Driver/Src/stm32f2xx_hal_dac.c ****   {
  65              		.loc 1 294 3 view .LVU8
 294:Drivers/STM32F2xx_HAL_Driver/Src/stm32f2xx_hal_dac.c ****   {
  66              		.loc 1 294 11 is_stmt 0 view .LVU9
  67 0006 0379     		ldrb	r3, [r0, #4]	@ zero_extendqisi2
 294:Drivers/STM32F2xx_HAL_Driver/Src/stm32f2xx_hal_dac.c ****   {
  68              		.loc 1 294 6 view .LVU10
  69 0008 33B1     		cbz	r3, .L10
  70              	.LVL2:
  71              	.L4:
 327:Drivers/STM32F2xx_HAL_Driver/Src/stm32f2xx_hal_dac.c **** 
  72              		.loc 1 327 3 is_stmt 1 view .LVU11
 327:Drivers/STM32F2xx_HAL_Driver/Src/stm32f2xx_hal_dac.c **** 
  73              		.loc 1 327 15 is_stmt 0 view .LVU12
  74 000a 0223     		movs	r3, #2
  75 000c 2371     		strb	r3, [r4, #4]
 330:Drivers/STM32F2xx_HAL_Driver/Src/stm32f2xx_hal_dac.c **** 
  76              		.loc 1 330 3 is_stmt 1 view .LVU13
 330:Drivers/STM32F2xx_HAL_Driver/Src/stm32f2xx_hal_dac.c **** 
  77              		.loc 1 330 19 is_stmt 0 view .LVU14
  78 000e 0020     		movs	r0, #0
  79 0010 2061     		str	r0, [r4, #16]
 333:Drivers/STM32F2xx_HAL_Driver/Src/stm32f2xx_hal_dac.c **** 
  80              		.loc 1 333 3 is_stmt 1 view .LVU15
 333:Drivers/STM32F2xx_HAL_Driver/Src/stm32f2xx_hal_dac.c **** 
  81              		.loc 1 333 15 is_stmt 0 view .LVU16
  82 0012 0123     		movs	r3, #1
  83 0014 2371     		strb	r3, [r4, #4]
 336:Drivers/STM32F2xx_HAL_Driver/Src/stm32f2xx_hal_dac.c **** }
  84              		.loc 1 336 3 is_stmt 1 view .LVU17
 337:Drivers/STM32F2xx_HAL_Driver/Src/stm32f2xx_hal_dac.c **** 
  85              		.loc 1 337 1 is_stmt 0 view .LVU18
  86 0016 10BD     		pop	{r4, pc}
  87              	.LVL3:
  88              	.L10:
 315:Drivers/STM32F2xx_HAL_Driver/Src/stm32f2xx_hal_dac.c **** 
  89              		.loc 1 315 5 is_stmt 1 view .LVU19
 315:Drivers/STM32F2xx_HAL_Driver/Src/stm32f2xx_hal_dac.c **** 
  90              		.loc 1 315 16 is_stmt 0 view .LVU20
  91 0018 4371     		strb	r3, [r0, #5]
 322:Drivers/STM32F2xx_HAL_Driver/Src/stm32f2xx_hal_dac.c **** #endif /* USE_HAL_DAC_REGISTER_CALLBACKS */
  92              		.loc 1 322 5 is_stmt 1 view .LVU21
  93 001a FFF7FEFF 		bl	HAL_DAC_MspInit
  94              	.LVL4:
 322:Drivers/STM32F2xx_HAL_Driver/Src/stm32f2xx_hal_dac.c **** #endif /* USE_HAL_DAC_REGISTER_CALLBACKS */
  95              		.loc 1 322 5 is_stmt 0 view .LVU22
  96 001e F4E7     		b	.L4
  97              	.LVL5:
  98              	.L5:
ARM GAS  /tmp/ccAK1HYA.s 			page 10


  99              	.LCFI1:
 100              		.cfi_def_cfa_offset 0
 101              		.cfi_restore 4
 102              		.cfi_restore 14
 289:Drivers/STM32F2xx_HAL_Driver/Src/stm32f2xx_hal_dac.c ****   }
 103              		.loc 1 289 12 view .LVU23
 104 0020 0120     		movs	r0, #1
 105              	.LVL6:
 337:Drivers/STM32F2xx_HAL_Driver/Src/stm32f2xx_hal_dac.c **** 
 106              		.loc 1 337 1 view .LVU24
 107 0022 7047     		bx	lr
 108              		.cfi_endproc
 109              	.LFE72:
 111              		.section	.text.HAL_DAC_MspDeInit,"ax",%progbits
 112              		.align	1
 113              		.weak	HAL_DAC_MspDeInit
 114              		.syntax unified
 115              		.thumb
 116              		.thumb_func
 117              		.fpu softvfp
 119              	HAL_DAC_MspDeInit:
 120              	.LVL7:
 121              	.LFB75:
 399:Drivers/STM32F2xx_HAL_Driver/Src/stm32f2xx_hal_dac.c **** 
 400:Drivers/STM32F2xx_HAL_Driver/Src/stm32f2xx_hal_dac.c **** /**
 401:Drivers/STM32F2xx_HAL_Driver/Src/stm32f2xx_hal_dac.c ****   * @brief  DeInitialize the DAC MSP.
 402:Drivers/STM32F2xx_HAL_Driver/Src/stm32f2xx_hal_dac.c ****   * @param  hdac pointer to a DAC_HandleTypeDef structure that contains
 403:Drivers/STM32F2xx_HAL_Driver/Src/stm32f2xx_hal_dac.c ****   *         the configuration information for the specified DAC.
 404:Drivers/STM32F2xx_HAL_Driver/Src/stm32f2xx_hal_dac.c ****   * @retval None
 405:Drivers/STM32F2xx_HAL_Driver/Src/stm32f2xx_hal_dac.c ****   */
 406:Drivers/STM32F2xx_HAL_Driver/Src/stm32f2xx_hal_dac.c **** __weak void HAL_DAC_MspDeInit(DAC_HandleTypeDef *hdac)
 407:Drivers/STM32F2xx_HAL_Driver/Src/stm32f2xx_hal_dac.c **** {
 122              		.loc 1 407 1 is_stmt 1 view -0
 123              		.cfi_startproc
 124              		@ args = 0, pretend = 0, frame = 0
 125              		@ frame_needed = 0, uses_anonymous_args = 0
 126              		@ link register save eliminated.
 408:Drivers/STM32F2xx_HAL_Driver/Src/stm32f2xx_hal_dac.c ****   /* Prevent unused argument(s) compilation warning */
 409:Drivers/STM32F2xx_HAL_Driver/Src/stm32f2xx_hal_dac.c ****   UNUSED(hdac);
 127              		.loc 1 409 3 view .LVU26
 410:Drivers/STM32F2xx_HAL_Driver/Src/stm32f2xx_hal_dac.c **** 
 411:Drivers/STM32F2xx_HAL_Driver/Src/stm32f2xx_hal_dac.c ****   /* NOTE : This function should not be modified, when the callback is needed,
 412:Drivers/STM32F2xx_HAL_Driver/Src/stm32f2xx_hal_dac.c ****             the HAL_DAC_MspDeInit could be implemented in the user file
 413:Drivers/STM32F2xx_HAL_Driver/Src/stm32f2xx_hal_dac.c ****    */
 414:Drivers/STM32F2xx_HAL_Driver/Src/stm32f2xx_hal_dac.c **** }
 128              		.loc 1 414 1 is_stmt 0 view .LVU27
 129 0000 7047     		bx	lr
 130              		.cfi_endproc
 131              	.LFE75:
 133              		.section	.text.HAL_DAC_DeInit,"ax",%progbits
 134              		.align	1
 135              		.global	HAL_DAC_DeInit
 136              		.syntax unified
 137              		.thumb
 138              		.thumb_func
 139              		.fpu softvfp
 141              	HAL_DAC_DeInit:
ARM GAS  /tmp/ccAK1HYA.s 			page 11


 142              	.LVL8:
 143              	.LFB73:
 346:Drivers/STM32F2xx_HAL_Driver/Src/stm32f2xx_hal_dac.c ****   /* Check DAC handle */
 144              		.loc 1 346 1 is_stmt 1 view -0
 145              		.cfi_startproc
 146              		@ args = 0, pretend = 0, frame = 0
 147              		@ frame_needed = 0, uses_anonymous_args = 0
 348:Drivers/STM32F2xx_HAL_Driver/Src/stm32f2xx_hal_dac.c ****   {
 148              		.loc 1 348 3 view .LVU29
 348:Drivers/STM32F2xx_HAL_Driver/Src/stm32f2xx_hal_dac.c ****   {
 149              		.loc 1 348 6 is_stmt 0 view .LVU30
 150 0000 50B1     		cbz	r0, .L14
 346:Drivers/STM32F2xx_HAL_Driver/Src/stm32f2xx_hal_dac.c ****   /* Check DAC handle */
 151              		.loc 1 346 1 view .LVU31
 152 0002 10B5     		push	{r4, lr}
 153              	.LCFI2:
 154              		.cfi_def_cfa_offset 8
 155              		.cfi_offset 4, -8
 156              		.cfi_offset 14, -4
 157 0004 0446     		mov	r4, r0
 354:Drivers/STM32F2xx_HAL_Driver/Src/stm32f2xx_hal_dac.c **** 
 158              		.loc 1 354 3 is_stmt 1 view .LVU32
 357:Drivers/STM32F2xx_HAL_Driver/Src/stm32f2xx_hal_dac.c **** 
 159              		.loc 1 357 3 view .LVU33
 357:Drivers/STM32F2xx_HAL_Driver/Src/stm32f2xx_hal_dac.c **** 
 160              		.loc 1 357 15 is_stmt 0 view .LVU34
 161 0006 0223     		movs	r3, #2
 162 0008 0371     		strb	r3, [r0, #4]
 368:Drivers/STM32F2xx_HAL_Driver/Src/stm32f2xx_hal_dac.c **** #endif /* USE_HAL_DAC_REGISTER_CALLBACKS */
 163              		.loc 1 368 3 is_stmt 1 view .LVU35
 164 000a FFF7FEFF 		bl	HAL_DAC_MspDeInit
 165              	.LVL9:
 372:Drivers/STM32F2xx_HAL_Driver/Src/stm32f2xx_hal_dac.c **** 
 166              		.loc 1 372 3 view .LVU36
 372:Drivers/STM32F2xx_HAL_Driver/Src/stm32f2xx_hal_dac.c **** 
 167              		.loc 1 372 19 is_stmt 0 view .LVU37
 168 000e 0020     		movs	r0, #0
 169 0010 2061     		str	r0, [r4, #16]
 375:Drivers/STM32F2xx_HAL_Driver/Src/stm32f2xx_hal_dac.c **** 
 170              		.loc 1 375 3 is_stmt 1 view .LVU38
 375:Drivers/STM32F2xx_HAL_Driver/Src/stm32f2xx_hal_dac.c **** 
 171              		.loc 1 375 15 is_stmt 0 view .LVU39
 172 0012 2071     		strb	r0, [r4, #4]
 378:Drivers/STM32F2xx_HAL_Driver/Src/stm32f2xx_hal_dac.c **** 
 173              		.loc 1 378 3 is_stmt 1 view .LVU40
 378:Drivers/STM32F2xx_HAL_Driver/Src/stm32f2xx_hal_dac.c **** 
 174              		.loc 1 378 3 view .LVU41
 175 0014 6071     		strb	r0, [r4, #5]
 378:Drivers/STM32F2xx_HAL_Driver/Src/stm32f2xx_hal_dac.c **** 
 176              		.loc 1 378 3 view .LVU42
 381:Drivers/STM32F2xx_HAL_Driver/Src/stm32f2xx_hal_dac.c **** }
 177              		.loc 1 381 3 view .LVU43
 382:Drivers/STM32F2xx_HAL_Driver/Src/stm32f2xx_hal_dac.c **** 
 178              		.loc 1 382 1 is_stmt 0 view .LVU44
 179 0016 10BD     		pop	{r4, pc}
 180              	.LVL10:
 181              	.L14:
ARM GAS  /tmp/ccAK1HYA.s 			page 12


 182              	.LCFI3:
 183              		.cfi_def_cfa_offset 0
 184              		.cfi_restore 4
 185              		.cfi_restore 14
 350:Drivers/STM32F2xx_HAL_Driver/Src/stm32f2xx_hal_dac.c ****   }
 186              		.loc 1 350 12 view .LVU45
 187 0018 0120     		movs	r0, #1
 188              	.LVL11:
 382:Drivers/STM32F2xx_HAL_Driver/Src/stm32f2xx_hal_dac.c **** 
 189              		.loc 1 382 1 view .LVU46
 190 001a 7047     		bx	lr
 191              		.cfi_endproc
 192              	.LFE73:
 194              		.section	.text.HAL_DAC_Start,"ax",%progbits
 195              		.align	1
 196              		.global	HAL_DAC_Start
 197              		.syntax unified
 198              		.thumb
 199              		.thumb_func
 200              		.fpu softvfp
 202              	HAL_DAC_Start:
 203              	.LVL12:
 204              	.LFB76:
 415:Drivers/STM32F2xx_HAL_Driver/Src/stm32f2xx_hal_dac.c **** 
 416:Drivers/STM32F2xx_HAL_Driver/Src/stm32f2xx_hal_dac.c **** /**
 417:Drivers/STM32F2xx_HAL_Driver/Src/stm32f2xx_hal_dac.c ****   * @}
 418:Drivers/STM32F2xx_HAL_Driver/Src/stm32f2xx_hal_dac.c ****   */
 419:Drivers/STM32F2xx_HAL_Driver/Src/stm32f2xx_hal_dac.c **** 
 420:Drivers/STM32F2xx_HAL_Driver/Src/stm32f2xx_hal_dac.c **** /** @defgroup DAC_Exported_Functions_Group2 IO operation functions
 421:Drivers/STM32F2xx_HAL_Driver/Src/stm32f2xx_hal_dac.c ****   *  @brief    IO operation functions
 422:Drivers/STM32F2xx_HAL_Driver/Src/stm32f2xx_hal_dac.c ****   *
 423:Drivers/STM32F2xx_HAL_Driver/Src/stm32f2xx_hal_dac.c **** @verbatim
 424:Drivers/STM32F2xx_HAL_Driver/Src/stm32f2xx_hal_dac.c ****   ==============================================================================
 425:Drivers/STM32F2xx_HAL_Driver/Src/stm32f2xx_hal_dac.c ****              ##### IO operation functions #####
 426:Drivers/STM32F2xx_HAL_Driver/Src/stm32f2xx_hal_dac.c ****   ==============================================================================
 427:Drivers/STM32F2xx_HAL_Driver/Src/stm32f2xx_hal_dac.c ****     [..]  This section provides functions allowing to:
 428:Drivers/STM32F2xx_HAL_Driver/Src/stm32f2xx_hal_dac.c ****       (+) Start conversion.
 429:Drivers/STM32F2xx_HAL_Driver/Src/stm32f2xx_hal_dac.c ****       (+) Stop conversion.
 430:Drivers/STM32F2xx_HAL_Driver/Src/stm32f2xx_hal_dac.c ****       (+) Start conversion and enable DMA transfer.
 431:Drivers/STM32F2xx_HAL_Driver/Src/stm32f2xx_hal_dac.c ****       (+) Stop conversion and disable DMA transfer.
 432:Drivers/STM32F2xx_HAL_Driver/Src/stm32f2xx_hal_dac.c ****       (+) Get result of conversion.
 433:Drivers/STM32F2xx_HAL_Driver/Src/stm32f2xx_hal_dac.c **** 
 434:Drivers/STM32F2xx_HAL_Driver/Src/stm32f2xx_hal_dac.c **** @endverbatim
 435:Drivers/STM32F2xx_HAL_Driver/Src/stm32f2xx_hal_dac.c ****   * @{
 436:Drivers/STM32F2xx_HAL_Driver/Src/stm32f2xx_hal_dac.c ****   */
 437:Drivers/STM32F2xx_HAL_Driver/Src/stm32f2xx_hal_dac.c **** 
 438:Drivers/STM32F2xx_HAL_Driver/Src/stm32f2xx_hal_dac.c **** /**
 439:Drivers/STM32F2xx_HAL_Driver/Src/stm32f2xx_hal_dac.c ****   * @brief  Enables DAC and starts conversion of channel.
 440:Drivers/STM32F2xx_HAL_Driver/Src/stm32f2xx_hal_dac.c ****   * @param  hdac pointer to a DAC_HandleTypeDef structure that contains
 441:Drivers/STM32F2xx_HAL_Driver/Src/stm32f2xx_hal_dac.c ****   *         the configuration information for the specified DAC.
 442:Drivers/STM32F2xx_HAL_Driver/Src/stm32f2xx_hal_dac.c ****   * @param  Channel The selected DAC channel.
 443:Drivers/STM32F2xx_HAL_Driver/Src/stm32f2xx_hal_dac.c ****   *          This parameter can be one of the following values:
 444:Drivers/STM32F2xx_HAL_Driver/Src/stm32f2xx_hal_dac.c ****   *            @arg DAC_CHANNEL_1: DAC Channel1 selected
 445:Drivers/STM32F2xx_HAL_Driver/Src/stm32f2xx_hal_dac.c ****   *            @arg DAC_CHANNEL_2: DAC Channel2 selected
 446:Drivers/STM32F2xx_HAL_Driver/Src/stm32f2xx_hal_dac.c ****   * @retval HAL status
 447:Drivers/STM32F2xx_HAL_Driver/Src/stm32f2xx_hal_dac.c ****   */
 448:Drivers/STM32F2xx_HAL_Driver/Src/stm32f2xx_hal_dac.c **** HAL_StatusTypeDef HAL_DAC_Start(DAC_HandleTypeDef *hdac, uint32_t Channel)
ARM GAS  /tmp/ccAK1HYA.s 			page 13


 449:Drivers/STM32F2xx_HAL_Driver/Src/stm32f2xx_hal_dac.c **** {
 205              		.loc 1 449 1 is_stmt 1 view -0
 206              		.cfi_startproc
 207              		@ args = 0, pretend = 0, frame = 0
 208              		@ frame_needed = 0, uses_anonymous_args = 0
 209              		@ link register save eliminated.
 450:Drivers/STM32F2xx_HAL_Driver/Src/stm32f2xx_hal_dac.c ****   /* Check the parameters */
 451:Drivers/STM32F2xx_HAL_Driver/Src/stm32f2xx_hal_dac.c ****   assert_param(IS_DAC_CHANNEL(Channel));
 210              		.loc 1 451 3 view .LVU48
 452:Drivers/STM32F2xx_HAL_Driver/Src/stm32f2xx_hal_dac.c **** 
 453:Drivers/STM32F2xx_HAL_Driver/Src/stm32f2xx_hal_dac.c ****   /* Process locked */
 454:Drivers/STM32F2xx_HAL_Driver/Src/stm32f2xx_hal_dac.c ****   __HAL_LOCK(hdac);
 211              		.loc 1 454 3 view .LVU49
 212              		.loc 1 454 3 view .LVU50
 213 0000 4379     		ldrb	r3, [r0, #5]	@ zero_extendqisi2
 214 0002 012B     		cmp	r3, #1
 215 0004 2DD0     		beq	.L23
 449:Drivers/STM32F2xx_HAL_Driver/Src/stm32f2xx_hal_dac.c ****   /* Check the parameters */
 216              		.loc 1 449 1 is_stmt 0 discriminator 2 view .LVU51
 217 0006 10B4     		push	{r4}
 218              	.LCFI4:
 219              		.cfi_def_cfa_offset 4
 220              		.cfi_offset 4, -4
 221              		.loc 1 454 3 is_stmt 1 discriminator 2 view .LVU52
 222 0008 0123     		movs	r3, #1
 223 000a 4371     		strb	r3, [r0, #5]
 224              		.loc 1 454 3 discriminator 2 view .LVU53
 455:Drivers/STM32F2xx_HAL_Driver/Src/stm32f2xx_hal_dac.c **** 
 456:Drivers/STM32F2xx_HAL_Driver/Src/stm32f2xx_hal_dac.c ****   /* Change DAC state */
 457:Drivers/STM32F2xx_HAL_Driver/Src/stm32f2xx_hal_dac.c ****   hdac->State = HAL_DAC_STATE_BUSY;
 225              		.loc 1 457 3 discriminator 2 view .LVU54
 226              		.loc 1 457 15 is_stmt 0 discriminator 2 view .LVU55
 227 000c 0222     		movs	r2, #2
 228 000e 0271     		strb	r2, [r0, #4]
 458:Drivers/STM32F2xx_HAL_Driver/Src/stm32f2xx_hal_dac.c **** 
 459:Drivers/STM32F2xx_HAL_Driver/Src/stm32f2xx_hal_dac.c ****   /* Enable the Peripheral */
 460:Drivers/STM32F2xx_HAL_Driver/Src/stm32f2xx_hal_dac.c ****   __HAL_DAC_ENABLE(hdac, Channel);
 229              		.loc 1 460 3 is_stmt 1 discriminator 2 view .LVU56
 230 0010 0468     		ldr	r4, [r0]
 231 0012 2268     		ldr	r2, [r4]
 232 0014 01F0100C 		and	ip, r1, #16
 233 0018 03FA0CF3 		lsl	r3, r3, ip
 234 001c 1343     		orrs	r3, r3, r2
 235 001e 2360     		str	r3, [r4]
 461:Drivers/STM32F2xx_HAL_Driver/Src/stm32f2xx_hal_dac.c **** 
 462:Drivers/STM32F2xx_HAL_Driver/Src/stm32f2xx_hal_dac.c ****   if (Channel == DAC_CHANNEL_1)
 236              		.loc 1 462 3 discriminator 2 view .LVU57
 237              		.loc 1 462 6 is_stmt 0 discriminator 2 view .LVU58
 238 0020 89B9     		cbnz	r1, .L21
 463:Drivers/STM32F2xx_HAL_Driver/Src/stm32f2xx_hal_dac.c ****   {
 464:Drivers/STM32F2xx_HAL_Driver/Src/stm32f2xx_hal_dac.c ****     /* Check if software trigger enabled */
 465:Drivers/STM32F2xx_HAL_Driver/Src/stm32f2xx_hal_dac.c ****     if ((hdac->Instance->CR & (DAC_CR_TEN1 | DAC_CR_TSEL1)) == DAC_TRIGGER_SOFTWARE)
 239              		.loc 1 465 5 is_stmt 1 view .LVU59
 240              		.loc 1 465 14 is_stmt 0 view .LVU60
 241 0022 0268     		ldr	r2, [r0]
 242              		.loc 1 465 24 view .LVU61
 243 0024 1368     		ldr	r3, [r2]
ARM GAS  /tmp/ccAK1HYA.s 			page 14


 244              		.loc 1 465 29 view .LVU62
 245 0026 03F03C03 		and	r3, r3, #60
 246              		.loc 1 465 8 view .LVU63
 247 002a 3C2B     		cmp	r3, #60
 248 002c 06D0     		beq	.L28
 249              	.LVL13:
 250              	.L22:
 466:Drivers/STM32F2xx_HAL_Driver/Src/stm32f2xx_hal_dac.c ****     {
 467:Drivers/STM32F2xx_HAL_Driver/Src/stm32f2xx_hal_dac.c ****       /* Enable the selected DAC software conversion */
 468:Drivers/STM32F2xx_HAL_Driver/Src/stm32f2xx_hal_dac.c ****       SET_BIT(hdac->Instance->SWTRIGR, DAC_SWTRIGR_SWTRIG1);
 469:Drivers/STM32F2xx_HAL_Driver/Src/stm32f2xx_hal_dac.c ****     }
 470:Drivers/STM32F2xx_HAL_Driver/Src/stm32f2xx_hal_dac.c ****   }
 471:Drivers/STM32F2xx_HAL_Driver/Src/stm32f2xx_hal_dac.c **** 
 472:Drivers/STM32F2xx_HAL_Driver/Src/stm32f2xx_hal_dac.c ****   else
 473:Drivers/STM32F2xx_HAL_Driver/Src/stm32f2xx_hal_dac.c ****   {
 474:Drivers/STM32F2xx_HAL_Driver/Src/stm32f2xx_hal_dac.c ****     /* Check if software trigger enabled */
 475:Drivers/STM32F2xx_HAL_Driver/Src/stm32f2xx_hal_dac.c ****     if ((hdac->Instance->CR & (DAC_CR_TEN2 | DAC_CR_TSEL2)) == (DAC_TRIGGER_SOFTWARE << (Channel & 
 476:Drivers/STM32F2xx_HAL_Driver/Src/stm32f2xx_hal_dac.c ****     {
 477:Drivers/STM32F2xx_HAL_Driver/Src/stm32f2xx_hal_dac.c ****       /* Enable the selected DAC software conversion*/
 478:Drivers/STM32F2xx_HAL_Driver/Src/stm32f2xx_hal_dac.c ****       SET_BIT(hdac->Instance->SWTRIGR, DAC_SWTRIGR_SWTRIG2);
 479:Drivers/STM32F2xx_HAL_Driver/Src/stm32f2xx_hal_dac.c ****     }
 480:Drivers/STM32F2xx_HAL_Driver/Src/stm32f2xx_hal_dac.c ****   }
 481:Drivers/STM32F2xx_HAL_Driver/Src/stm32f2xx_hal_dac.c **** 
 482:Drivers/STM32F2xx_HAL_Driver/Src/stm32f2xx_hal_dac.c **** 
 483:Drivers/STM32F2xx_HAL_Driver/Src/stm32f2xx_hal_dac.c ****   /* Change DAC state */
 484:Drivers/STM32F2xx_HAL_Driver/Src/stm32f2xx_hal_dac.c ****   hdac->State = HAL_DAC_STATE_READY;
 251              		.loc 1 484 3 is_stmt 1 view .LVU64
 252              		.loc 1 484 15 is_stmt 0 view .LVU65
 253 002e 0123     		movs	r3, #1
 254 0030 0371     		strb	r3, [r0, #4]
 485:Drivers/STM32F2xx_HAL_Driver/Src/stm32f2xx_hal_dac.c **** 
 486:Drivers/STM32F2xx_HAL_Driver/Src/stm32f2xx_hal_dac.c ****   /* Process unlocked */
 487:Drivers/STM32F2xx_HAL_Driver/Src/stm32f2xx_hal_dac.c ****   __HAL_UNLOCK(hdac);
 255              		.loc 1 487 3 is_stmt 1 view .LVU66
 256              		.loc 1 487 3 view .LVU67
 257 0032 0023     		movs	r3, #0
 258 0034 4371     		strb	r3, [r0, #5]
 259              		.loc 1 487 3 view .LVU68
 488:Drivers/STM32F2xx_HAL_Driver/Src/stm32f2xx_hal_dac.c **** 
 489:Drivers/STM32F2xx_HAL_Driver/Src/stm32f2xx_hal_dac.c ****   /* Return function status */
 490:Drivers/STM32F2xx_HAL_Driver/Src/stm32f2xx_hal_dac.c ****   return HAL_OK;
 260              		.loc 1 490 3 view .LVU69
 261              		.loc 1 490 10 is_stmt 0 view .LVU70
 262 0036 1846     		mov	r0, r3
 263              	.LVL14:
 491:Drivers/STM32F2xx_HAL_Driver/Src/stm32f2xx_hal_dac.c **** }
 264              		.loc 1 491 1 view .LVU71
 265 0038 10BC     		pop	{r4}
 266              	.LCFI5:
 267              		.cfi_remember_state
 268              		.cfi_restore 4
 269              		.cfi_def_cfa_offset 0
 270 003a 7047     		bx	lr
 271              	.LVL15:
 272              	.L28:
 273              	.LCFI6:
 274              		.cfi_restore_state
ARM GAS  /tmp/ccAK1HYA.s 			page 15


 468:Drivers/STM32F2xx_HAL_Driver/Src/stm32f2xx_hal_dac.c ****     }
 275              		.loc 1 468 7 is_stmt 1 view .LVU72
 276 003c 5368     		ldr	r3, [r2, #4]
 277 003e 43F00103 		orr	r3, r3, #1
 278 0042 5360     		str	r3, [r2, #4]
 279 0044 F3E7     		b	.L22
 280              	.L21:
 475:Drivers/STM32F2xx_HAL_Driver/Src/stm32f2xx_hal_dac.c ****     {
 281              		.loc 1 475 5 view .LVU73
 475:Drivers/STM32F2xx_HAL_Driver/Src/stm32f2xx_hal_dac.c ****     {
 282              		.loc 1 475 14 is_stmt 0 view .LVU74
 283 0046 0168     		ldr	r1, [r0]
 284              	.LVL16:
 475:Drivers/STM32F2xx_HAL_Driver/Src/stm32f2xx_hal_dac.c ****     {
 285              		.loc 1 475 24 view .LVU75
 286 0048 0A68     		ldr	r2, [r1]
 475:Drivers/STM32F2xx_HAL_Driver/Src/stm32f2xx_hal_dac.c ****     {
 287              		.loc 1 475 29 view .LVU76
 288 004a 02F47012 		and	r2, r2, #3932160
 475:Drivers/STM32F2xx_HAL_Driver/Src/stm32f2xx_hal_dac.c ****     {
 289              		.loc 1 475 86 view .LVU77
 290 004e 3C23     		movs	r3, #60
 291 0050 03FA0CFC 		lsl	ip, r3, ip
 475:Drivers/STM32F2xx_HAL_Driver/Src/stm32f2xx_hal_dac.c ****     {
 292              		.loc 1 475 8 view .LVU78
 293 0054 6245     		cmp	r2, ip
 294 0056 EAD1     		bne	.L22
 478:Drivers/STM32F2xx_HAL_Driver/Src/stm32f2xx_hal_dac.c ****     }
 295              		.loc 1 478 7 is_stmt 1 view .LVU79
 296 0058 4B68     		ldr	r3, [r1, #4]
 297 005a 43F00203 		orr	r3, r3, #2
 298 005e 4B60     		str	r3, [r1, #4]
 299 0060 E5E7     		b	.L22
 300              	.LVL17:
 301              	.L23:
 302              	.LCFI7:
 303              		.cfi_def_cfa_offset 0
 304              		.cfi_restore 4
 454:Drivers/STM32F2xx_HAL_Driver/Src/stm32f2xx_hal_dac.c **** 
 305              		.loc 1 454 3 is_stmt 0 view .LVU80
 306 0062 0220     		movs	r0, #2
 307              	.LVL18:
 308              		.loc 1 491 1 view .LVU81
 309 0064 7047     		bx	lr
 310              		.cfi_endproc
 311              	.LFE76:
 313              		.section	.text.HAL_DAC_Stop,"ax",%progbits
 314              		.align	1
 315              		.global	HAL_DAC_Stop
 316              		.syntax unified
 317              		.thumb
 318              		.thumb_func
 319              		.fpu softvfp
 321              	HAL_DAC_Stop:
 322              	.LVL19:
 323              	.LFB77:
 492:Drivers/STM32F2xx_HAL_Driver/Src/stm32f2xx_hal_dac.c **** 
ARM GAS  /tmp/ccAK1HYA.s 			page 16


 493:Drivers/STM32F2xx_HAL_Driver/Src/stm32f2xx_hal_dac.c **** /**
 494:Drivers/STM32F2xx_HAL_Driver/Src/stm32f2xx_hal_dac.c ****   * @brief  Disables DAC and stop conversion of channel.
 495:Drivers/STM32F2xx_HAL_Driver/Src/stm32f2xx_hal_dac.c ****   * @param  hdac pointer to a DAC_HandleTypeDef structure that contains
 496:Drivers/STM32F2xx_HAL_Driver/Src/stm32f2xx_hal_dac.c ****   *         the configuration information for the specified DAC.
 497:Drivers/STM32F2xx_HAL_Driver/Src/stm32f2xx_hal_dac.c ****   * @param  Channel The selected DAC channel.
 498:Drivers/STM32F2xx_HAL_Driver/Src/stm32f2xx_hal_dac.c ****   *          This parameter can be one of the following values:
 499:Drivers/STM32F2xx_HAL_Driver/Src/stm32f2xx_hal_dac.c ****   *            @arg DAC_CHANNEL_1: DAC Channel1 selected
 500:Drivers/STM32F2xx_HAL_Driver/Src/stm32f2xx_hal_dac.c ****   *            @arg DAC_CHANNEL_2: DAC Channel2 selected
 501:Drivers/STM32F2xx_HAL_Driver/Src/stm32f2xx_hal_dac.c ****   * @retval HAL status
 502:Drivers/STM32F2xx_HAL_Driver/Src/stm32f2xx_hal_dac.c ****   */
 503:Drivers/STM32F2xx_HAL_Driver/Src/stm32f2xx_hal_dac.c **** HAL_StatusTypeDef HAL_DAC_Stop(DAC_HandleTypeDef *hdac, uint32_t Channel)
 504:Drivers/STM32F2xx_HAL_Driver/Src/stm32f2xx_hal_dac.c **** {
 324              		.loc 1 504 1 is_stmt 1 view -0
 325              		.cfi_startproc
 326              		@ args = 0, pretend = 0, frame = 0
 327              		@ frame_needed = 0, uses_anonymous_args = 0
 328              		@ link register save eliminated.
 329              		.loc 1 504 1 is_stmt 0 view .LVU83
 330 0000 10B4     		push	{r4}
 331              	.LCFI8:
 332              		.cfi_def_cfa_offset 4
 333              		.cfi_offset 4, -4
 505:Drivers/STM32F2xx_HAL_Driver/Src/stm32f2xx_hal_dac.c ****   /* Check the parameters */
 506:Drivers/STM32F2xx_HAL_Driver/Src/stm32f2xx_hal_dac.c ****   assert_param(IS_DAC_CHANNEL(Channel));
 334              		.loc 1 506 3 is_stmt 1 view .LVU84
 507:Drivers/STM32F2xx_HAL_Driver/Src/stm32f2xx_hal_dac.c **** 
 508:Drivers/STM32F2xx_HAL_Driver/Src/stm32f2xx_hal_dac.c ****   /* Disable the Peripheral */
 509:Drivers/STM32F2xx_HAL_Driver/Src/stm32f2xx_hal_dac.c ****   __HAL_DAC_DISABLE(hdac, Channel);
 335              		.loc 1 509 3 view .LVU85
 336 0002 0468     		ldr	r4, [r0]
 337 0004 2368     		ldr	r3, [r4]
 338 0006 01F01001 		and	r1, r1, #16
 339              	.LVL20:
 340              		.loc 1 509 3 is_stmt 0 view .LVU86
 341 000a 0122     		movs	r2, #1
 342 000c 02FA01F1 		lsl	r1, r2, r1
 343 0010 23EA0101 		bic	r1, r3, r1
 344 0014 2160     		str	r1, [r4]
 510:Drivers/STM32F2xx_HAL_Driver/Src/stm32f2xx_hal_dac.c **** 
 511:Drivers/STM32F2xx_HAL_Driver/Src/stm32f2xx_hal_dac.c ****   /* Change DAC state */
 512:Drivers/STM32F2xx_HAL_Driver/Src/stm32f2xx_hal_dac.c ****   hdac->State = HAL_DAC_STATE_READY;
 345              		.loc 1 512 3 is_stmt 1 view .LVU87
 346              		.loc 1 512 15 is_stmt 0 view .LVU88
 347 0016 0271     		strb	r2, [r0, #4]
 513:Drivers/STM32F2xx_HAL_Driver/Src/stm32f2xx_hal_dac.c **** 
 514:Drivers/STM32F2xx_HAL_Driver/Src/stm32f2xx_hal_dac.c ****   /* Return function status */
 515:Drivers/STM32F2xx_HAL_Driver/Src/stm32f2xx_hal_dac.c ****   return HAL_OK;
 348              		.loc 1 515 3 is_stmt 1 view .LVU89
 516:Drivers/STM32F2xx_HAL_Driver/Src/stm32f2xx_hal_dac.c **** }
 349              		.loc 1 516 1 is_stmt 0 view .LVU90
 350 0018 0020     		movs	r0, #0
 351              	.LVL21:
 352              		.loc 1 516 1 view .LVU91
 353 001a 10BC     		pop	{r4}
 354              	.LCFI9:
 355              		.cfi_restore 4
 356              		.cfi_def_cfa_offset 0
ARM GAS  /tmp/ccAK1HYA.s 			page 17


 357 001c 7047     		bx	lr
 358              		.cfi_endproc
 359              	.LFE77:
 361              		.section	.text.HAL_DAC_Start_DMA,"ax",%progbits
 362              		.align	1
 363              		.global	HAL_DAC_Start_DMA
 364              		.syntax unified
 365              		.thumb
 366              		.thumb_func
 367              		.fpu softvfp
 369              	HAL_DAC_Start_DMA:
 370              	.LVL22:
 371              	.LFB78:
 517:Drivers/STM32F2xx_HAL_Driver/Src/stm32f2xx_hal_dac.c **** 
 518:Drivers/STM32F2xx_HAL_Driver/Src/stm32f2xx_hal_dac.c **** /**
 519:Drivers/STM32F2xx_HAL_Driver/Src/stm32f2xx_hal_dac.c ****   * @brief  Enables DAC and starts conversion of channel.
 520:Drivers/STM32F2xx_HAL_Driver/Src/stm32f2xx_hal_dac.c ****   * @param  hdac pointer to a DAC_HandleTypeDef structure that contains
 521:Drivers/STM32F2xx_HAL_Driver/Src/stm32f2xx_hal_dac.c ****   *         the configuration information for the specified DAC.
 522:Drivers/STM32F2xx_HAL_Driver/Src/stm32f2xx_hal_dac.c ****   * @param  Channel The selected DAC channel.
 523:Drivers/STM32F2xx_HAL_Driver/Src/stm32f2xx_hal_dac.c ****   *          This parameter can be one of the following values:
 524:Drivers/STM32F2xx_HAL_Driver/Src/stm32f2xx_hal_dac.c ****   *            @arg DAC_CHANNEL_1: DAC Channel1 selected
 525:Drivers/STM32F2xx_HAL_Driver/Src/stm32f2xx_hal_dac.c ****   *            @arg DAC_CHANNEL_2: DAC Channel2 selected
 526:Drivers/STM32F2xx_HAL_Driver/Src/stm32f2xx_hal_dac.c ****   * @param  pData The source Buffer address.
 527:Drivers/STM32F2xx_HAL_Driver/Src/stm32f2xx_hal_dac.c ****   * @param  Length The length of data to be transferred from memory to DAC peripheral
 528:Drivers/STM32F2xx_HAL_Driver/Src/stm32f2xx_hal_dac.c ****   * @param  Alignment Specifies the data alignment for DAC channel.
 529:Drivers/STM32F2xx_HAL_Driver/Src/stm32f2xx_hal_dac.c ****   *          This parameter can be one of the following values:
 530:Drivers/STM32F2xx_HAL_Driver/Src/stm32f2xx_hal_dac.c ****   *            @arg DAC_ALIGN_8B_R: 8bit right data alignment selected
 531:Drivers/STM32F2xx_HAL_Driver/Src/stm32f2xx_hal_dac.c ****   *            @arg DAC_ALIGN_12B_L: 12bit left data alignment selected
 532:Drivers/STM32F2xx_HAL_Driver/Src/stm32f2xx_hal_dac.c ****   *            @arg DAC_ALIGN_12B_R: 12bit right data alignment selected
 533:Drivers/STM32F2xx_HAL_Driver/Src/stm32f2xx_hal_dac.c ****   * @retval HAL status
 534:Drivers/STM32F2xx_HAL_Driver/Src/stm32f2xx_hal_dac.c ****   */
 535:Drivers/STM32F2xx_HAL_Driver/Src/stm32f2xx_hal_dac.c **** HAL_StatusTypeDef HAL_DAC_Start_DMA(DAC_HandleTypeDef *hdac, uint32_t Channel, uint32_t *pData, uin
 536:Drivers/STM32F2xx_HAL_Driver/Src/stm32f2xx_hal_dac.c ****                                     uint32_t Alignment)
 537:Drivers/STM32F2xx_HAL_Driver/Src/stm32f2xx_hal_dac.c **** {
 372              		.loc 1 537 1 is_stmt 1 view -0
 373              		.cfi_startproc
 374              		@ args = 4, pretend = 0, frame = 0
 375              		@ frame_needed = 0, uses_anonymous_args = 0
 376              		.loc 1 537 1 is_stmt 0 view .LVU93
 377 0000 70B5     		push	{r4, r5, r6, lr}
 378              	.LCFI10:
 379              		.cfi_def_cfa_offset 16
 380              		.cfi_offset 4, -16
 381              		.cfi_offset 5, -12
 382              		.cfi_offset 6, -8
 383              		.cfi_offset 14, -4
 384 0002 0446     		mov	r4, r0
 385 0004 0D46     		mov	r5, r1
 386 0006 1146     		mov	r1, r2
 387              	.LVL23:
 388              		.loc 1 537 1 view .LVU94
 389 0008 049A     		ldr	r2, [sp, #16]
 390              	.LVL24:
 538:Drivers/STM32F2xx_HAL_Driver/Src/stm32f2xx_hal_dac.c ****   HAL_StatusTypeDef status;
 391              		.loc 1 538 3 is_stmt 1 view .LVU95
 539:Drivers/STM32F2xx_HAL_Driver/Src/stm32f2xx_hal_dac.c ****   uint32_t tmpreg = 0U;
 392              		.loc 1 539 3 view .LVU96
ARM GAS  /tmp/ccAK1HYA.s 			page 18


 540:Drivers/STM32F2xx_HAL_Driver/Src/stm32f2xx_hal_dac.c **** 
 541:Drivers/STM32F2xx_HAL_Driver/Src/stm32f2xx_hal_dac.c ****   /* Check the parameters */
 542:Drivers/STM32F2xx_HAL_Driver/Src/stm32f2xx_hal_dac.c ****   assert_param(IS_DAC_CHANNEL(Channel));
 393              		.loc 1 542 3 view .LVU97
 543:Drivers/STM32F2xx_HAL_Driver/Src/stm32f2xx_hal_dac.c ****   assert_param(IS_DAC_ALIGN(Alignment));
 394              		.loc 1 543 3 view .LVU98
 544:Drivers/STM32F2xx_HAL_Driver/Src/stm32f2xx_hal_dac.c **** 
 545:Drivers/STM32F2xx_HAL_Driver/Src/stm32f2xx_hal_dac.c ****   /* Process locked */
 546:Drivers/STM32F2xx_HAL_Driver/Src/stm32f2xx_hal_dac.c ****   __HAL_LOCK(hdac);
 395              		.loc 1 546 3 view .LVU99
 396              		.loc 1 546 3 view .LVU100
 397 000a 4079     		ldrb	r0, [r0, #5]	@ zero_extendqisi2
 398              	.LVL25:
 399              		.loc 1 546 3 is_stmt 0 view .LVU101
 400 000c 0128     		cmp	r0, #1
 401 000e 66D0     		beq	.L42
 402              		.loc 1 546 3 is_stmt 1 discriminator 2 view .LVU102
 403 0010 0120     		movs	r0, #1
 404 0012 6071     		strb	r0, [r4, #5]
 405              		.loc 1 546 3 discriminator 2 view .LVU103
 547:Drivers/STM32F2xx_HAL_Driver/Src/stm32f2xx_hal_dac.c **** 
 548:Drivers/STM32F2xx_HAL_Driver/Src/stm32f2xx_hal_dac.c ****   /* Change DAC state */
 549:Drivers/STM32F2xx_HAL_Driver/Src/stm32f2xx_hal_dac.c ****   hdac->State = HAL_DAC_STATE_BUSY;
 406              		.loc 1 549 3 discriminator 2 view .LVU104
 407              		.loc 1 549 15 is_stmt 0 discriminator 2 view .LVU105
 408 0014 0220     		movs	r0, #2
 409 0016 2071     		strb	r0, [r4, #4]
 550:Drivers/STM32F2xx_HAL_Driver/Src/stm32f2xx_hal_dac.c **** 
 551:Drivers/STM32F2xx_HAL_Driver/Src/stm32f2xx_hal_dac.c ****   if (Channel == DAC_CHANNEL_1)
 410              		.loc 1 551 3 is_stmt 1 discriminator 2 view .LVU106
 411              		.loc 1 551 6 is_stmt 0 discriminator 2 view .LVU107
 412 0018 002D     		cmp	r5, #0
 413 001a 34D1     		bne	.L33
 552:Drivers/STM32F2xx_HAL_Driver/Src/stm32f2xx_hal_dac.c ****   {
 553:Drivers/STM32F2xx_HAL_Driver/Src/stm32f2xx_hal_dac.c ****     /* Set the DMA transfer complete callback for channel1 */
 554:Drivers/STM32F2xx_HAL_Driver/Src/stm32f2xx_hal_dac.c ****     hdac->DMA_Handle1->XferCpltCallback = DAC_DMAConvCpltCh1;
 414              		.loc 1 554 5 is_stmt 1 view .LVU108
 415              		.loc 1 554 9 is_stmt 0 view .LVU109
 416 001c A068     		ldr	r0, [r4, #8]
 417              		.loc 1 554 41 view .LVU110
 418 001e 314E     		ldr	r6, .L48
 419 0020 C663     		str	r6, [r0, #60]
 555:Drivers/STM32F2xx_HAL_Driver/Src/stm32f2xx_hal_dac.c **** 
 556:Drivers/STM32F2xx_HAL_Driver/Src/stm32f2xx_hal_dac.c ****     /* Set the DMA half transfer complete callback for channel1 */
 557:Drivers/STM32F2xx_HAL_Driver/Src/stm32f2xx_hal_dac.c ****     hdac->DMA_Handle1->XferHalfCpltCallback = DAC_DMAHalfConvCpltCh1;
 420              		.loc 1 557 5 is_stmt 1 view .LVU111
 421              		.loc 1 557 9 is_stmt 0 view .LVU112
 422 0022 A068     		ldr	r0, [r4, #8]
 423              		.loc 1 557 45 view .LVU113
 424 0024 304E     		ldr	r6, .L48+4
 425 0026 0664     		str	r6, [r0, #64]
 558:Drivers/STM32F2xx_HAL_Driver/Src/stm32f2xx_hal_dac.c **** 
 559:Drivers/STM32F2xx_HAL_Driver/Src/stm32f2xx_hal_dac.c ****     /* Set the DMA error callback for channel1 */
 560:Drivers/STM32F2xx_HAL_Driver/Src/stm32f2xx_hal_dac.c ****     hdac->DMA_Handle1->XferErrorCallback = DAC_DMAErrorCh1;
 426              		.loc 1 560 5 is_stmt 1 view .LVU114
 427              		.loc 1 560 9 is_stmt 0 view .LVU115
 428 0028 A068     		ldr	r0, [r4, #8]
ARM GAS  /tmp/ccAK1HYA.s 			page 19


 429              		.loc 1 560 42 view .LVU116
 430 002a 304E     		ldr	r6, .L48+8
 431 002c C664     		str	r6, [r0, #76]
 561:Drivers/STM32F2xx_HAL_Driver/Src/stm32f2xx_hal_dac.c **** 
 562:Drivers/STM32F2xx_HAL_Driver/Src/stm32f2xx_hal_dac.c ****     /* Enable the selected DAC channel1 DMA request */
 563:Drivers/STM32F2xx_HAL_Driver/Src/stm32f2xx_hal_dac.c ****     SET_BIT(hdac->Instance->CR, DAC_CR_DMAEN1);
 432              		.loc 1 563 5 is_stmt 1 view .LVU117
 433 002e 2668     		ldr	r6, [r4]
 434 0030 3068     		ldr	r0, [r6]
 435 0032 40F48050 		orr	r0, r0, #4096
 436 0036 3060     		str	r0, [r6]
 564:Drivers/STM32F2xx_HAL_Driver/Src/stm32f2xx_hal_dac.c **** 
 565:Drivers/STM32F2xx_HAL_Driver/Src/stm32f2xx_hal_dac.c ****     /* Case of use of channel 1 */
 566:Drivers/STM32F2xx_HAL_Driver/Src/stm32f2xx_hal_dac.c ****     switch (Alignment)
 437              		.loc 1 566 5 view .LVU118
 438 0038 042A     		cmp	r2, #4
 439 003a 1ED0     		beq	.L34
 440 003c 082A     		cmp	r2, #8
 441 003e 1FD0     		beq	.L35
 442 0040 C2B1     		cbz	r2, .L46
 443 0042 2A46     		mov	r2, r5
 444              	.LVL26:
 445              	.L36:
 567:Drivers/STM32F2xx_HAL_Driver/Src/stm32f2xx_hal_dac.c ****     {
 568:Drivers/STM32F2xx_HAL_Driver/Src/stm32f2xx_hal_dac.c ****       case DAC_ALIGN_12B_R:
 569:Drivers/STM32F2xx_HAL_Driver/Src/stm32f2xx_hal_dac.c ****         /* Get DHR12R1 address */
 570:Drivers/STM32F2xx_HAL_Driver/Src/stm32f2xx_hal_dac.c ****         tmpreg = (uint32_t)&hdac->Instance->DHR12R1;
 571:Drivers/STM32F2xx_HAL_Driver/Src/stm32f2xx_hal_dac.c ****         break;
 572:Drivers/STM32F2xx_HAL_Driver/Src/stm32f2xx_hal_dac.c ****       case DAC_ALIGN_12B_L:
 573:Drivers/STM32F2xx_HAL_Driver/Src/stm32f2xx_hal_dac.c ****         /* Get DHR12L1 address */
 574:Drivers/STM32F2xx_HAL_Driver/Src/stm32f2xx_hal_dac.c ****         tmpreg = (uint32_t)&hdac->Instance->DHR12L1;
 575:Drivers/STM32F2xx_HAL_Driver/Src/stm32f2xx_hal_dac.c ****         break;
 576:Drivers/STM32F2xx_HAL_Driver/Src/stm32f2xx_hal_dac.c ****       case DAC_ALIGN_8B_R:
 577:Drivers/STM32F2xx_HAL_Driver/Src/stm32f2xx_hal_dac.c ****         /* Get DHR8R1 address */
 578:Drivers/STM32F2xx_HAL_Driver/Src/stm32f2xx_hal_dac.c ****         tmpreg = (uint32_t)&hdac->Instance->DHR8R1;
 579:Drivers/STM32F2xx_HAL_Driver/Src/stm32f2xx_hal_dac.c ****         break;
 580:Drivers/STM32F2xx_HAL_Driver/Src/stm32f2xx_hal_dac.c ****       default:
 581:Drivers/STM32F2xx_HAL_Driver/Src/stm32f2xx_hal_dac.c ****         break;
 582:Drivers/STM32F2xx_HAL_Driver/Src/stm32f2xx_hal_dac.c ****     }
 583:Drivers/STM32F2xx_HAL_Driver/Src/stm32f2xx_hal_dac.c ****   }
 584:Drivers/STM32F2xx_HAL_Driver/Src/stm32f2xx_hal_dac.c **** 
 585:Drivers/STM32F2xx_HAL_Driver/Src/stm32f2xx_hal_dac.c ****   else
 586:Drivers/STM32F2xx_HAL_Driver/Src/stm32f2xx_hal_dac.c ****   {
 587:Drivers/STM32F2xx_HAL_Driver/Src/stm32f2xx_hal_dac.c ****     /* Set the DMA transfer complete callback for channel2 */
 588:Drivers/STM32F2xx_HAL_Driver/Src/stm32f2xx_hal_dac.c ****     hdac->DMA_Handle2->XferCpltCallback = DAC_DMAConvCpltCh2;
 589:Drivers/STM32F2xx_HAL_Driver/Src/stm32f2xx_hal_dac.c **** 
 590:Drivers/STM32F2xx_HAL_Driver/Src/stm32f2xx_hal_dac.c ****     /* Set the DMA half transfer complete callback for channel2 */
 591:Drivers/STM32F2xx_HAL_Driver/Src/stm32f2xx_hal_dac.c ****     hdac->DMA_Handle2->XferHalfCpltCallback = DAC_DMAHalfConvCpltCh2;
 592:Drivers/STM32F2xx_HAL_Driver/Src/stm32f2xx_hal_dac.c **** 
 593:Drivers/STM32F2xx_HAL_Driver/Src/stm32f2xx_hal_dac.c ****     /* Set the DMA error callback for channel2 */
 594:Drivers/STM32F2xx_HAL_Driver/Src/stm32f2xx_hal_dac.c ****     hdac->DMA_Handle2->XferErrorCallback = DAC_DMAErrorCh2;
 595:Drivers/STM32F2xx_HAL_Driver/Src/stm32f2xx_hal_dac.c **** 
 596:Drivers/STM32F2xx_HAL_Driver/Src/stm32f2xx_hal_dac.c ****     /* Enable the selected DAC channel2 DMA request */
 597:Drivers/STM32F2xx_HAL_Driver/Src/stm32f2xx_hal_dac.c ****     SET_BIT(hdac->Instance->CR, DAC_CR_DMAEN2);
 598:Drivers/STM32F2xx_HAL_Driver/Src/stm32f2xx_hal_dac.c **** 
 599:Drivers/STM32F2xx_HAL_Driver/Src/stm32f2xx_hal_dac.c ****     /* Case of use of channel 2 */
 600:Drivers/STM32F2xx_HAL_Driver/Src/stm32f2xx_hal_dac.c ****     switch (Alignment)
ARM GAS  /tmp/ccAK1HYA.s 			page 20


 601:Drivers/STM32F2xx_HAL_Driver/Src/stm32f2xx_hal_dac.c ****     {
 602:Drivers/STM32F2xx_HAL_Driver/Src/stm32f2xx_hal_dac.c ****       case DAC_ALIGN_12B_R:
 603:Drivers/STM32F2xx_HAL_Driver/Src/stm32f2xx_hal_dac.c ****         /* Get DHR12R2 address */
 604:Drivers/STM32F2xx_HAL_Driver/Src/stm32f2xx_hal_dac.c ****         tmpreg = (uint32_t)&hdac->Instance->DHR12R2;
 605:Drivers/STM32F2xx_HAL_Driver/Src/stm32f2xx_hal_dac.c ****         break;
 606:Drivers/STM32F2xx_HAL_Driver/Src/stm32f2xx_hal_dac.c ****       case DAC_ALIGN_12B_L:
 607:Drivers/STM32F2xx_HAL_Driver/Src/stm32f2xx_hal_dac.c ****         /* Get DHR12L2 address */
 608:Drivers/STM32F2xx_HAL_Driver/Src/stm32f2xx_hal_dac.c ****         tmpreg = (uint32_t)&hdac->Instance->DHR12L2;
 609:Drivers/STM32F2xx_HAL_Driver/Src/stm32f2xx_hal_dac.c ****         break;
 610:Drivers/STM32F2xx_HAL_Driver/Src/stm32f2xx_hal_dac.c ****       case DAC_ALIGN_8B_R:
 611:Drivers/STM32F2xx_HAL_Driver/Src/stm32f2xx_hal_dac.c ****         /* Get DHR8R2 address */
 612:Drivers/STM32F2xx_HAL_Driver/Src/stm32f2xx_hal_dac.c ****         tmpreg = (uint32_t)&hdac->Instance->DHR8R2;
 613:Drivers/STM32F2xx_HAL_Driver/Src/stm32f2xx_hal_dac.c ****         break;
 614:Drivers/STM32F2xx_HAL_Driver/Src/stm32f2xx_hal_dac.c ****       default:
 615:Drivers/STM32F2xx_HAL_Driver/Src/stm32f2xx_hal_dac.c ****         break;
 616:Drivers/STM32F2xx_HAL_Driver/Src/stm32f2xx_hal_dac.c ****     }
 617:Drivers/STM32F2xx_HAL_Driver/Src/stm32f2xx_hal_dac.c ****   }
 618:Drivers/STM32F2xx_HAL_Driver/Src/stm32f2xx_hal_dac.c **** 
 619:Drivers/STM32F2xx_HAL_Driver/Src/stm32f2xx_hal_dac.c **** 
 620:Drivers/STM32F2xx_HAL_Driver/Src/stm32f2xx_hal_dac.c ****   /* Enable the DMA Stream */
 621:Drivers/STM32F2xx_HAL_Driver/Src/stm32f2xx_hal_dac.c ****   if (Channel == DAC_CHANNEL_1)
 446              		.loc 1 621 3 view .LVU119
 447              		.loc 1 621 6 is_stmt 0 view .LVU120
 448 0044 002D     		cmp	r5, #0
 449 0046 3CD1     		bne	.L39
 622:Drivers/STM32F2xx_HAL_Driver/Src/stm32f2xx_hal_dac.c ****   {
 623:Drivers/STM32F2xx_HAL_Driver/Src/stm32f2xx_hal_dac.c ****     /* Enable the DAC DMA underrun interrupt */
 624:Drivers/STM32F2xx_HAL_Driver/Src/stm32f2xx_hal_dac.c ****     __HAL_DAC_ENABLE_IT(hdac, DAC_IT_DMAUDR1);
 450              		.loc 1 624 5 is_stmt 1 view .LVU121
 451 0048 2668     		ldr	r6, [r4]
 452 004a 3068     		ldr	r0, [r6]
 453 004c 40F40050 		orr	r0, r0, #8192
 454 0050 3060     		str	r0, [r6]
 625:Drivers/STM32F2xx_HAL_Driver/Src/stm32f2xx_hal_dac.c **** 
 626:Drivers/STM32F2xx_HAL_Driver/Src/stm32f2xx_hal_dac.c ****     /* Enable the DMA Stream */
 627:Drivers/STM32F2xx_HAL_Driver/Src/stm32f2xx_hal_dac.c ****     status = HAL_DMA_Start_IT(hdac->DMA_Handle1, (uint32_t)pData, tmpreg, Length);
 455              		.loc 1 627 5 view .LVU122
 456              		.loc 1 627 14 is_stmt 0 view .LVU123
 457 0052 A068     		ldr	r0, [r4, #8]
 458 0054 FFF7FEFF 		bl	HAL_DMA_Start_IT
 459              	.LVL27:
 460              	.L40:
 628:Drivers/STM32F2xx_HAL_Driver/Src/stm32f2xx_hal_dac.c ****   }
 629:Drivers/STM32F2xx_HAL_Driver/Src/stm32f2xx_hal_dac.c **** 
 630:Drivers/STM32F2xx_HAL_Driver/Src/stm32f2xx_hal_dac.c ****   else
 631:Drivers/STM32F2xx_HAL_Driver/Src/stm32f2xx_hal_dac.c ****   {
 632:Drivers/STM32F2xx_HAL_Driver/Src/stm32f2xx_hal_dac.c ****     /* Enable the DAC DMA underrun interrupt */
 633:Drivers/STM32F2xx_HAL_Driver/Src/stm32f2xx_hal_dac.c ****     __HAL_DAC_ENABLE_IT(hdac, DAC_IT_DMAUDR2);
 634:Drivers/STM32F2xx_HAL_Driver/Src/stm32f2xx_hal_dac.c **** 
 635:Drivers/STM32F2xx_HAL_Driver/Src/stm32f2xx_hal_dac.c ****     /* Enable the DMA Stream */
 636:Drivers/STM32F2xx_HAL_Driver/Src/stm32f2xx_hal_dac.c ****     status = HAL_DMA_Start_IT(hdac->DMA_Handle2, (uint32_t)pData, tmpreg, Length);
 637:Drivers/STM32F2xx_HAL_Driver/Src/stm32f2xx_hal_dac.c ****   }
 638:Drivers/STM32F2xx_HAL_Driver/Src/stm32f2xx_hal_dac.c **** 
 639:Drivers/STM32F2xx_HAL_Driver/Src/stm32f2xx_hal_dac.c **** 
 640:Drivers/STM32F2xx_HAL_Driver/Src/stm32f2xx_hal_dac.c ****   /* Process Unlocked */
 641:Drivers/STM32F2xx_HAL_Driver/Src/stm32f2xx_hal_dac.c ****   __HAL_UNLOCK(hdac);
 461              		.loc 1 641 3 is_stmt 1 view .LVU124
ARM GAS  /tmp/ccAK1HYA.s 			page 21


 462              		.loc 1 641 3 view .LVU125
 463 0058 0023     		movs	r3, #0
 464 005a 6371     		strb	r3, [r4, #5]
 465              		.loc 1 641 3 view .LVU126
 642:Drivers/STM32F2xx_HAL_Driver/Src/stm32f2xx_hal_dac.c **** 
 643:Drivers/STM32F2xx_HAL_Driver/Src/stm32f2xx_hal_dac.c ****   if (status == HAL_OK)
 466              		.loc 1 643 3 view .LVU127
 467              		.loc 1 643 6 is_stmt 0 view .LVU128
 468 005c 0028     		cmp	r0, #0
 469 005e 39D1     		bne	.L41
 644:Drivers/STM32F2xx_HAL_Driver/Src/stm32f2xx_hal_dac.c ****   {
 645:Drivers/STM32F2xx_HAL_Driver/Src/stm32f2xx_hal_dac.c ****     /* Enable the Peripheral */
 646:Drivers/STM32F2xx_HAL_Driver/Src/stm32f2xx_hal_dac.c ****     __HAL_DAC_ENABLE(hdac, Channel);
 470              		.loc 1 646 5 is_stmt 1 view .LVU129
 471 0060 2268     		ldr	r2, [r4]
 472 0062 1368     		ldr	r3, [r2]
 473 0064 05F01005 		and	r5, r5, #16
 474              	.LVL28:
 475              		.loc 1 646 5 is_stmt 0 view .LVU130
 476 0068 0121     		movs	r1, #1
 477 006a 01FA05F5 		lsl	r5, r1, r5
 478 006e 1D43     		orrs	r5, r5, r3
 479 0070 1560     		str	r5, [r2]
 480              	.LVL29:
 481              	.L32:
 647:Drivers/STM32F2xx_HAL_Driver/Src/stm32f2xx_hal_dac.c ****   }
 648:Drivers/STM32F2xx_HAL_Driver/Src/stm32f2xx_hal_dac.c ****   else
 649:Drivers/STM32F2xx_HAL_Driver/Src/stm32f2xx_hal_dac.c ****   {
 650:Drivers/STM32F2xx_HAL_Driver/Src/stm32f2xx_hal_dac.c ****     hdac->ErrorCode |= HAL_DAC_ERROR_DMA;
 651:Drivers/STM32F2xx_HAL_Driver/Src/stm32f2xx_hal_dac.c ****   }
 652:Drivers/STM32F2xx_HAL_Driver/Src/stm32f2xx_hal_dac.c **** 
 653:Drivers/STM32F2xx_HAL_Driver/Src/stm32f2xx_hal_dac.c ****   /* Return function status */
 654:Drivers/STM32F2xx_HAL_Driver/Src/stm32f2xx_hal_dac.c ****   return status;
 655:Drivers/STM32F2xx_HAL_Driver/Src/stm32f2xx_hal_dac.c **** }
 482              		.loc 1 655 1 view .LVU131
 483 0072 70BD     		pop	{r4, r5, r6, pc}
 484              	.LVL30:
 485              	.L46:
 570:Drivers/STM32F2xx_HAL_Driver/Src/stm32f2xx_hal_dac.c ****         break;
 486              		.loc 1 570 9 is_stmt 1 view .LVU132
 570:Drivers/STM32F2xx_HAL_Driver/Src/stm32f2xx_hal_dac.c ****         break;
 487              		.loc 1 570 33 is_stmt 0 view .LVU133
 488 0074 2268     		ldr	r2, [r4]
 570:Drivers/STM32F2xx_HAL_Driver/Src/stm32f2xx_hal_dac.c ****         break;
 489              		.loc 1 570 28 view .LVU134
 490 0076 0832     		adds	r2, r2, #8
 491              	.LVL31:
 571:Drivers/STM32F2xx_HAL_Driver/Src/stm32f2xx_hal_dac.c ****       case DAC_ALIGN_12B_L:
 492              		.loc 1 571 9 is_stmt 1 view .LVU135
 493 0078 E4E7     		b	.L36
 494              	.LVL32:
 495              	.L34:
 574:Drivers/STM32F2xx_HAL_Driver/Src/stm32f2xx_hal_dac.c ****         break;
 496              		.loc 1 574 9 view .LVU136
 574:Drivers/STM32F2xx_HAL_Driver/Src/stm32f2xx_hal_dac.c ****         break;
 497              		.loc 1 574 33 is_stmt 0 view .LVU137
 498 007a 2268     		ldr	r2, [r4]
ARM GAS  /tmp/ccAK1HYA.s 			page 22


 574:Drivers/STM32F2xx_HAL_Driver/Src/stm32f2xx_hal_dac.c ****         break;
 499              		.loc 1 574 28 view .LVU138
 500 007c 0C32     		adds	r2, r2, #12
 501              	.LVL33:
 575:Drivers/STM32F2xx_HAL_Driver/Src/stm32f2xx_hal_dac.c ****       case DAC_ALIGN_8B_R:
 502              		.loc 1 575 9 is_stmt 1 view .LVU139
 503 007e E1E7     		b	.L36
 504              	.LVL34:
 505              	.L35:
 578:Drivers/STM32F2xx_HAL_Driver/Src/stm32f2xx_hal_dac.c ****         break;
 506              		.loc 1 578 9 view .LVU140
 578:Drivers/STM32F2xx_HAL_Driver/Src/stm32f2xx_hal_dac.c ****         break;
 507              		.loc 1 578 33 is_stmt 0 view .LVU141
 508 0080 2268     		ldr	r2, [r4]
 578:Drivers/STM32F2xx_HAL_Driver/Src/stm32f2xx_hal_dac.c ****         break;
 509              		.loc 1 578 28 view .LVU142
 510 0082 1032     		adds	r2, r2, #16
 511              	.LVL35:
 579:Drivers/STM32F2xx_HAL_Driver/Src/stm32f2xx_hal_dac.c ****       default:
 512              		.loc 1 579 9 is_stmt 1 view .LVU143
 513 0084 DEE7     		b	.L36
 514              	.LVL36:
 515              	.L33:
 588:Drivers/STM32F2xx_HAL_Driver/Src/stm32f2xx_hal_dac.c **** 
 516              		.loc 1 588 5 view .LVU144
 588:Drivers/STM32F2xx_HAL_Driver/Src/stm32f2xx_hal_dac.c **** 
 517              		.loc 1 588 9 is_stmt 0 view .LVU145
 518 0086 E068     		ldr	r0, [r4, #12]
 588:Drivers/STM32F2xx_HAL_Driver/Src/stm32f2xx_hal_dac.c **** 
 519              		.loc 1 588 41 view .LVU146
 520 0088 194E     		ldr	r6, .L48+12
 521 008a C663     		str	r6, [r0, #60]
 591:Drivers/STM32F2xx_HAL_Driver/Src/stm32f2xx_hal_dac.c **** 
 522              		.loc 1 591 5 is_stmt 1 view .LVU147
 591:Drivers/STM32F2xx_HAL_Driver/Src/stm32f2xx_hal_dac.c **** 
 523              		.loc 1 591 9 is_stmt 0 view .LVU148
 524 008c E068     		ldr	r0, [r4, #12]
 591:Drivers/STM32F2xx_HAL_Driver/Src/stm32f2xx_hal_dac.c **** 
 525              		.loc 1 591 45 view .LVU149
 526 008e 194E     		ldr	r6, .L48+16
 527 0090 0664     		str	r6, [r0, #64]
 594:Drivers/STM32F2xx_HAL_Driver/Src/stm32f2xx_hal_dac.c **** 
 528              		.loc 1 594 5 is_stmt 1 view .LVU150
 594:Drivers/STM32F2xx_HAL_Driver/Src/stm32f2xx_hal_dac.c **** 
 529              		.loc 1 594 9 is_stmt 0 view .LVU151
 530 0092 E068     		ldr	r0, [r4, #12]
 594:Drivers/STM32F2xx_HAL_Driver/Src/stm32f2xx_hal_dac.c **** 
 531              		.loc 1 594 42 view .LVU152
 532 0094 184E     		ldr	r6, .L48+20
 533 0096 C664     		str	r6, [r0, #76]
 597:Drivers/STM32F2xx_HAL_Driver/Src/stm32f2xx_hal_dac.c **** 
 534              		.loc 1 597 5 is_stmt 1 view .LVU153
 535 0098 2668     		ldr	r6, [r4]
 536 009a 3068     		ldr	r0, [r6]
 537 009c 40F08050 		orr	r0, r0, #268435456
 538 00a0 3060     		str	r0, [r6]
 600:Drivers/STM32F2xx_HAL_Driver/Src/stm32f2xx_hal_dac.c ****     {
ARM GAS  /tmp/ccAK1HYA.s 			page 23


 539              		.loc 1 600 5 view .LVU154
 540 00a2 042A     		cmp	r2, #4
 541 00a4 07D0     		beq	.L37
 542 00a6 082A     		cmp	r2, #8
 543 00a8 08D0     		beq	.L38
 544 00aa 0AB1     		cbz	r2, .L47
 545 00ac 0022     		movs	r2, #0
 546 00ae C9E7     		b	.L36
 547              	.L47:
 604:Drivers/STM32F2xx_HAL_Driver/Src/stm32f2xx_hal_dac.c ****         break;
 548              		.loc 1 604 9 view .LVU155
 604:Drivers/STM32F2xx_HAL_Driver/Src/stm32f2xx_hal_dac.c ****         break;
 549              		.loc 1 604 33 is_stmt 0 view .LVU156
 550 00b0 2268     		ldr	r2, [r4]
 604:Drivers/STM32F2xx_HAL_Driver/Src/stm32f2xx_hal_dac.c ****         break;
 551              		.loc 1 604 28 view .LVU157
 552 00b2 1432     		adds	r2, r2, #20
 553              	.LVL37:
 605:Drivers/STM32F2xx_HAL_Driver/Src/stm32f2xx_hal_dac.c ****       case DAC_ALIGN_12B_L:
 554              		.loc 1 605 9 is_stmt 1 view .LVU158
 555 00b4 C6E7     		b	.L36
 556              	.LVL38:
 557              	.L37:
 608:Drivers/STM32F2xx_HAL_Driver/Src/stm32f2xx_hal_dac.c ****         break;
 558              		.loc 1 608 9 view .LVU159
 608:Drivers/STM32F2xx_HAL_Driver/Src/stm32f2xx_hal_dac.c ****         break;
 559              		.loc 1 608 33 is_stmt 0 view .LVU160
 560 00b6 2268     		ldr	r2, [r4]
 608:Drivers/STM32F2xx_HAL_Driver/Src/stm32f2xx_hal_dac.c ****         break;
 561              		.loc 1 608 28 view .LVU161
 562 00b8 1832     		adds	r2, r2, #24
 563              	.LVL39:
 609:Drivers/STM32F2xx_HAL_Driver/Src/stm32f2xx_hal_dac.c ****       case DAC_ALIGN_8B_R:
 564              		.loc 1 609 9 is_stmt 1 view .LVU162
 565 00ba C3E7     		b	.L36
 566              	.LVL40:
 567              	.L38:
 612:Drivers/STM32F2xx_HAL_Driver/Src/stm32f2xx_hal_dac.c ****         break;
 568              		.loc 1 612 9 view .LVU163
 612:Drivers/STM32F2xx_HAL_Driver/Src/stm32f2xx_hal_dac.c ****         break;
 569              		.loc 1 612 33 is_stmt 0 view .LVU164
 570 00bc 2268     		ldr	r2, [r4]
 612:Drivers/STM32F2xx_HAL_Driver/Src/stm32f2xx_hal_dac.c ****         break;
 571              		.loc 1 612 28 view .LVU165
 572 00be 1C32     		adds	r2, r2, #28
 573              	.LVL41:
 613:Drivers/STM32F2xx_HAL_Driver/Src/stm32f2xx_hal_dac.c ****       default:
 574              		.loc 1 613 9 is_stmt 1 view .LVU166
 575 00c0 C0E7     		b	.L36
 576              	.L39:
 633:Drivers/STM32F2xx_HAL_Driver/Src/stm32f2xx_hal_dac.c **** 
 577              		.loc 1 633 5 view .LVU167
 578 00c2 2668     		ldr	r6, [r4]
 579 00c4 3068     		ldr	r0, [r6]
 580 00c6 40F00050 		orr	r0, r0, #536870912
 581 00ca 3060     		str	r0, [r6]
 636:Drivers/STM32F2xx_HAL_Driver/Src/stm32f2xx_hal_dac.c ****   }
ARM GAS  /tmp/ccAK1HYA.s 			page 24


 582              		.loc 1 636 5 view .LVU168
 636:Drivers/STM32F2xx_HAL_Driver/Src/stm32f2xx_hal_dac.c ****   }
 583              		.loc 1 636 14 is_stmt 0 view .LVU169
 584 00cc E068     		ldr	r0, [r4, #12]
 585 00ce FFF7FEFF 		bl	HAL_DMA_Start_IT
 586              	.LVL42:
 636:Drivers/STM32F2xx_HAL_Driver/Src/stm32f2xx_hal_dac.c ****   }
 587              		.loc 1 636 14 view .LVU170
 588 00d2 C1E7     		b	.L40
 589              	.L41:
 650:Drivers/STM32F2xx_HAL_Driver/Src/stm32f2xx_hal_dac.c ****   }
 590              		.loc 1 650 5 is_stmt 1 view .LVU171
 650:Drivers/STM32F2xx_HAL_Driver/Src/stm32f2xx_hal_dac.c ****   }
 591              		.loc 1 650 21 is_stmt 0 view .LVU172
 592 00d4 2369     		ldr	r3, [r4, #16]
 593 00d6 43F00403 		orr	r3, r3, #4
 594 00da 2361     		str	r3, [r4, #16]
 595 00dc C9E7     		b	.L32
 596              	.LVL43:
 597              	.L42:
 546:Drivers/STM32F2xx_HAL_Driver/Src/stm32f2xx_hal_dac.c **** 
 598              		.loc 1 546 3 view .LVU173
 599 00de 0220     		movs	r0, #2
 600 00e0 C7E7     		b	.L32
 601              	.L49:
 602 00e2 00BF     		.align	2
 603              	.L48:
 604 00e4 00000000 		.word	DAC_DMAConvCpltCh1
 605 00e8 00000000 		.word	DAC_DMAHalfConvCpltCh1
 606 00ec 00000000 		.word	DAC_DMAErrorCh1
 607 00f0 00000000 		.word	DAC_DMAConvCpltCh2
 608 00f4 00000000 		.word	DAC_DMAHalfConvCpltCh2
 609 00f8 00000000 		.word	DAC_DMAErrorCh2
 610              		.cfi_endproc
 611              	.LFE78:
 613              		.section	.text.HAL_DAC_Stop_DMA,"ax",%progbits
 614              		.align	1
 615              		.global	HAL_DAC_Stop_DMA
 616              		.syntax unified
 617              		.thumb
 618              		.thumb_func
 619              		.fpu softvfp
 621              	HAL_DAC_Stop_DMA:
 622              	.LVL44:
 623              	.LFB79:
 656:Drivers/STM32F2xx_HAL_Driver/Src/stm32f2xx_hal_dac.c **** 
 657:Drivers/STM32F2xx_HAL_Driver/Src/stm32f2xx_hal_dac.c **** /**
 658:Drivers/STM32F2xx_HAL_Driver/Src/stm32f2xx_hal_dac.c ****   * @brief  Disables DAC and stop conversion of channel.
 659:Drivers/STM32F2xx_HAL_Driver/Src/stm32f2xx_hal_dac.c ****   * @param  hdac pointer to a DAC_HandleTypeDef structure that contains
 660:Drivers/STM32F2xx_HAL_Driver/Src/stm32f2xx_hal_dac.c ****   *         the configuration information for the specified DAC.
 661:Drivers/STM32F2xx_HAL_Driver/Src/stm32f2xx_hal_dac.c ****   * @param  Channel The selected DAC channel.
 662:Drivers/STM32F2xx_HAL_Driver/Src/stm32f2xx_hal_dac.c ****   *          This parameter can be one of the following values:
 663:Drivers/STM32F2xx_HAL_Driver/Src/stm32f2xx_hal_dac.c ****   *            @arg DAC_CHANNEL_1: DAC Channel1 selected
 664:Drivers/STM32F2xx_HAL_Driver/Src/stm32f2xx_hal_dac.c ****   *            @arg DAC_CHANNEL_2: DAC Channel2 selected
 665:Drivers/STM32F2xx_HAL_Driver/Src/stm32f2xx_hal_dac.c ****   * @retval HAL status
 666:Drivers/STM32F2xx_HAL_Driver/Src/stm32f2xx_hal_dac.c ****   */
 667:Drivers/STM32F2xx_HAL_Driver/Src/stm32f2xx_hal_dac.c **** HAL_StatusTypeDef HAL_DAC_Stop_DMA(DAC_HandleTypeDef *hdac, uint32_t Channel)
ARM GAS  /tmp/ccAK1HYA.s 			page 25


 668:Drivers/STM32F2xx_HAL_Driver/Src/stm32f2xx_hal_dac.c **** {
 624              		.loc 1 668 1 is_stmt 1 view -0
 625              		.cfi_startproc
 626              		@ args = 0, pretend = 0, frame = 0
 627              		@ frame_needed = 0, uses_anonymous_args = 0
 628              		.loc 1 668 1 is_stmt 0 view .LVU175
 629 0000 10B5     		push	{r4, lr}
 630              	.LCFI11:
 631              		.cfi_def_cfa_offset 8
 632              		.cfi_offset 4, -8
 633              		.cfi_offset 14, -4
 634 0002 0446     		mov	r4, r0
 669:Drivers/STM32F2xx_HAL_Driver/Src/stm32f2xx_hal_dac.c ****   /* Check the parameters */
 670:Drivers/STM32F2xx_HAL_Driver/Src/stm32f2xx_hal_dac.c ****   assert_param(IS_DAC_CHANNEL(Channel));
 635              		.loc 1 670 3 is_stmt 1 view .LVU176
 671:Drivers/STM32F2xx_HAL_Driver/Src/stm32f2xx_hal_dac.c **** 
 672:Drivers/STM32F2xx_HAL_Driver/Src/stm32f2xx_hal_dac.c ****   /* Disable the selected DAC channel DMA request */
 673:Drivers/STM32F2xx_HAL_Driver/Src/stm32f2xx_hal_dac.c ****   hdac->Instance->CR &= ~(DAC_CR_DMAEN1 << (Channel & 0x10UL));
 636              		.loc 1 673 3 view .LVU177
 637              		.loc 1 673 7 is_stmt 0 view .LVU178
 638 0004 0368     		ldr	r3, [r0]
 639              		.loc 1 673 22 view .LVU179
 640 0006 1868     		ldr	r0, [r3]
 641              	.LVL45:
 642              		.loc 1 673 53 view .LVU180
 643 0008 01F0100E 		and	lr, r1, #16
 644              		.loc 1 673 41 view .LVU181
 645 000c 4FF4805C 		mov	ip, #4096
 646 0010 0CFA0EFC 		lsl	ip, ip, lr
 647              		.loc 1 673 22 view .LVU182
 648 0014 20EA0C00 		bic	r0, r0, ip
 649 0018 1860     		str	r0, [r3]
 674:Drivers/STM32F2xx_HAL_Driver/Src/stm32f2xx_hal_dac.c **** 
 675:Drivers/STM32F2xx_HAL_Driver/Src/stm32f2xx_hal_dac.c ****   /* Disable the Peripheral */
 676:Drivers/STM32F2xx_HAL_Driver/Src/stm32f2xx_hal_dac.c ****   __HAL_DAC_DISABLE(hdac, Channel);
 650              		.loc 1 676 3 is_stmt 1 view .LVU183
 651 001a 2068     		ldr	r0, [r4]
 652 001c 0368     		ldr	r3, [r0]
 653 001e 0122     		movs	r2, #1
 654 0020 02FA0EF2 		lsl	r2, r2, lr
 655 0024 23EA0203 		bic	r3, r3, r2
 656 0028 0360     		str	r3, [r0]
 677:Drivers/STM32F2xx_HAL_Driver/Src/stm32f2xx_hal_dac.c **** 
 678:Drivers/STM32F2xx_HAL_Driver/Src/stm32f2xx_hal_dac.c ****   /* Disable the DMA Stream */
 679:Drivers/STM32F2xx_HAL_Driver/Src/stm32f2xx_hal_dac.c **** 
 680:Drivers/STM32F2xx_HAL_Driver/Src/stm32f2xx_hal_dac.c ****   /* Channel1 is used */
 681:Drivers/STM32F2xx_HAL_Driver/Src/stm32f2xx_hal_dac.c ****   if (Channel == DAC_CHANNEL_1)
 657              		.loc 1 681 3 view .LVU184
 658              		.loc 1 681 6 is_stmt 0 view .LVU185
 659 002a 59B9     		cbnz	r1, .L51
 682:Drivers/STM32F2xx_HAL_Driver/Src/stm32f2xx_hal_dac.c ****   {
 683:Drivers/STM32F2xx_HAL_Driver/Src/stm32f2xx_hal_dac.c ****     /* Disable the DMA Stream */
 684:Drivers/STM32F2xx_HAL_Driver/Src/stm32f2xx_hal_dac.c ****     (void)HAL_DMA_Abort(hdac->DMA_Handle1);
 660              		.loc 1 684 5 is_stmt 1 view .LVU186
 661              		.loc 1 684 11 is_stmt 0 view .LVU187
 662 002c A068     		ldr	r0, [r4, #8]
 663 002e FFF7FEFF 		bl	HAL_DMA_Abort
ARM GAS  /tmp/ccAK1HYA.s 			page 26


 664              	.LVL46:
 685:Drivers/STM32F2xx_HAL_Driver/Src/stm32f2xx_hal_dac.c **** 
 686:Drivers/STM32F2xx_HAL_Driver/Src/stm32f2xx_hal_dac.c ****     /* Disable the DAC DMA underrun interrupt */
 687:Drivers/STM32F2xx_HAL_Driver/Src/stm32f2xx_hal_dac.c ****     __HAL_DAC_DISABLE_IT(hdac, DAC_IT_DMAUDR1);
 665              		.loc 1 687 5 is_stmt 1 view .LVU188
 666 0032 2268     		ldr	r2, [r4]
 667 0034 1368     		ldr	r3, [r2]
 668 0036 23F40053 		bic	r3, r3, #8192
 669 003a 1360     		str	r3, [r2]
 670              	.L52:
 688:Drivers/STM32F2xx_HAL_Driver/Src/stm32f2xx_hal_dac.c ****   }
 689:Drivers/STM32F2xx_HAL_Driver/Src/stm32f2xx_hal_dac.c **** 
 690:Drivers/STM32F2xx_HAL_Driver/Src/stm32f2xx_hal_dac.c ****   else /* Channel2 is used for */
 691:Drivers/STM32F2xx_HAL_Driver/Src/stm32f2xx_hal_dac.c ****   {
 692:Drivers/STM32F2xx_HAL_Driver/Src/stm32f2xx_hal_dac.c ****     /* Disable the DMA Stream */
 693:Drivers/STM32F2xx_HAL_Driver/Src/stm32f2xx_hal_dac.c ****     (void)HAL_DMA_Abort(hdac->DMA_Handle2);
 694:Drivers/STM32F2xx_HAL_Driver/Src/stm32f2xx_hal_dac.c **** 
 695:Drivers/STM32F2xx_HAL_Driver/Src/stm32f2xx_hal_dac.c ****     /* Disable the DAC DMA underrun interrupt */
 696:Drivers/STM32F2xx_HAL_Driver/Src/stm32f2xx_hal_dac.c ****     __HAL_DAC_DISABLE_IT(hdac, DAC_IT_DMAUDR2);
 697:Drivers/STM32F2xx_HAL_Driver/Src/stm32f2xx_hal_dac.c ****   }
 698:Drivers/STM32F2xx_HAL_Driver/Src/stm32f2xx_hal_dac.c **** 
 699:Drivers/STM32F2xx_HAL_Driver/Src/stm32f2xx_hal_dac.c **** 
 700:Drivers/STM32F2xx_HAL_Driver/Src/stm32f2xx_hal_dac.c ****   /* Change DAC state */
 701:Drivers/STM32F2xx_HAL_Driver/Src/stm32f2xx_hal_dac.c ****   hdac->State = HAL_DAC_STATE_READY;
 671              		.loc 1 701 3 view .LVU189
 672              		.loc 1 701 15 is_stmt 0 view .LVU190
 673 003c 0123     		movs	r3, #1
 674 003e 2371     		strb	r3, [r4, #4]
 702:Drivers/STM32F2xx_HAL_Driver/Src/stm32f2xx_hal_dac.c **** 
 703:Drivers/STM32F2xx_HAL_Driver/Src/stm32f2xx_hal_dac.c ****   /* Return function status */
 704:Drivers/STM32F2xx_HAL_Driver/Src/stm32f2xx_hal_dac.c ****   return HAL_OK;
 675              		.loc 1 704 3 is_stmt 1 view .LVU191
 705:Drivers/STM32F2xx_HAL_Driver/Src/stm32f2xx_hal_dac.c **** }
 676              		.loc 1 705 1 is_stmt 0 view .LVU192
 677 0040 0020     		movs	r0, #0
 678 0042 10BD     		pop	{r4, pc}
 679              	.LVL47:
 680              	.L51:
 693:Drivers/STM32F2xx_HAL_Driver/Src/stm32f2xx_hal_dac.c **** 
 681              		.loc 1 693 5 is_stmt 1 view .LVU193
 693:Drivers/STM32F2xx_HAL_Driver/Src/stm32f2xx_hal_dac.c **** 
 682              		.loc 1 693 11 is_stmt 0 view .LVU194
 683 0044 E068     		ldr	r0, [r4, #12]
 684 0046 FFF7FEFF 		bl	HAL_DMA_Abort
 685              	.LVL48:
 696:Drivers/STM32F2xx_HAL_Driver/Src/stm32f2xx_hal_dac.c ****   }
 686              		.loc 1 696 5 is_stmt 1 view .LVU195
 687 004a 2268     		ldr	r2, [r4]
 688 004c 1368     		ldr	r3, [r2]
 689 004e 23F00053 		bic	r3, r3, #536870912
 690 0052 1360     		str	r3, [r2]
 691 0054 F2E7     		b	.L52
 692              		.cfi_endproc
 693              	.LFE79:
 695              		.section	.text.HAL_DAC_SetValue,"ax",%progbits
 696              		.align	1
 697              		.global	HAL_DAC_SetValue
ARM GAS  /tmp/ccAK1HYA.s 			page 27


 698              		.syntax unified
 699              		.thumb
 700              		.thumb_func
 701              		.fpu softvfp
 703              	HAL_DAC_SetValue:
 704              	.LVL49:
 705              	.LFB81:
 706:Drivers/STM32F2xx_HAL_Driver/Src/stm32f2xx_hal_dac.c **** 
 707:Drivers/STM32F2xx_HAL_Driver/Src/stm32f2xx_hal_dac.c **** /**
 708:Drivers/STM32F2xx_HAL_Driver/Src/stm32f2xx_hal_dac.c ****   * @brief  Handles DAC interrupt request
 709:Drivers/STM32F2xx_HAL_Driver/Src/stm32f2xx_hal_dac.c ****   *         This function uses the interruption of DMA
 710:Drivers/STM32F2xx_HAL_Driver/Src/stm32f2xx_hal_dac.c ****   *         underrun.
 711:Drivers/STM32F2xx_HAL_Driver/Src/stm32f2xx_hal_dac.c ****   * @param  hdac pointer to a DAC_HandleTypeDef structure that contains
 712:Drivers/STM32F2xx_HAL_Driver/Src/stm32f2xx_hal_dac.c ****   *         the configuration information for the specified DAC.
 713:Drivers/STM32F2xx_HAL_Driver/Src/stm32f2xx_hal_dac.c ****   * @retval None
 714:Drivers/STM32F2xx_HAL_Driver/Src/stm32f2xx_hal_dac.c ****   */
 715:Drivers/STM32F2xx_HAL_Driver/Src/stm32f2xx_hal_dac.c **** void HAL_DAC_IRQHandler(DAC_HandleTypeDef *hdac)
 716:Drivers/STM32F2xx_HAL_Driver/Src/stm32f2xx_hal_dac.c **** {
 717:Drivers/STM32F2xx_HAL_Driver/Src/stm32f2xx_hal_dac.c ****   if (__HAL_DAC_GET_IT_SOURCE(hdac, DAC_IT_DMAUDR1))
 718:Drivers/STM32F2xx_HAL_Driver/Src/stm32f2xx_hal_dac.c ****   {
 719:Drivers/STM32F2xx_HAL_Driver/Src/stm32f2xx_hal_dac.c ****     /* Check underrun flag of DAC channel 1 */
 720:Drivers/STM32F2xx_HAL_Driver/Src/stm32f2xx_hal_dac.c ****     if (__HAL_DAC_GET_FLAG(hdac, DAC_FLAG_DMAUDR1))
 721:Drivers/STM32F2xx_HAL_Driver/Src/stm32f2xx_hal_dac.c ****     {
 722:Drivers/STM32F2xx_HAL_Driver/Src/stm32f2xx_hal_dac.c ****       /* Change DAC state to error state */
 723:Drivers/STM32F2xx_HAL_Driver/Src/stm32f2xx_hal_dac.c ****       hdac->State = HAL_DAC_STATE_ERROR;
 724:Drivers/STM32F2xx_HAL_Driver/Src/stm32f2xx_hal_dac.c **** 
 725:Drivers/STM32F2xx_HAL_Driver/Src/stm32f2xx_hal_dac.c ****       /* Set DAC error code to channel1 DMA underrun error */
 726:Drivers/STM32F2xx_HAL_Driver/Src/stm32f2xx_hal_dac.c ****       SET_BIT(hdac->ErrorCode, HAL_DAC_ERROR_DMAUNDERRUNCH1);
 727:Drivers/STM32F2xx_HAL_Driver/Src/stm32f2xx_hal_dac.c **** 
 728:Drivers/STM32F2xx_HAL_Driver/Src/stm32f2xx_hal_dac.c ****       /* Clear the underrun flag */
 729:Drivers/STM32F2xx_HAL_Driver/Src/stm32f2xx_hal_dac.c ****       __HAL_DAC_CLEAR_FLAG(hdac, DAC_FLAG_DMAUDR1);
 730:Drivers/STM32F2xx_HAL_Driver/Src/stm32f2xx_hal_dac.c **** 
 731:Drivers/STM32F2xx_HAL_Driver/Src/stm32f2xx_hal_dac.c ****       /* Disable the selected DAC channel1 DMA request */
 732:Drivers/STM32F2xx_HAL_Driver/Src/stm32f2xx_hal_dac.c ****       CLEAR_BIT(hdac->Instance->CR, DAC_CR_DMAEN1);
 733:Drivers/STM32F2xx_HAL_Driver/Src/stm32f2xx_hal_dac.c **** 
 734:Drivers/STM32F2xx_HAL_Driver/Src/stm32f2xx_hal_dac.c ****       /* Error callback */
 735:Drivers/STM32F2xx_HAL_Driver/Src/stm32f2xx_hal_dac.c **** #if (USE_HAL_DAC_REGISTER_CALLBACKS == 1)
 736:Drivers/STM32F2xx_HAL_Driver/Src/stm32f2xx_hal_dac.c ****       hdac->DMAUnderrunCallbackCh1(hdac);
 737:Drivers/STM32F2xx_HAL_Driver/Src/stm32f2xx_hal_dac.c **** #else
 738:Drivers/STM32F2xx_HAL_Driver/Src/stm32f2xx_hal_dac.c ****       HAL_DAC_DMAUnderrunCallbackCh1(hdac);
 739:Drivers/STM32F2xx_HAL_Driver/Src/stm32f2xx_hal_dac.c **** #endif /* USE_HAL_DAC_REGISTER_CALLBACKS */
 740:Drivers/STM32F2xx_HAL_Driver/Src/stm32f2xx_hal_dac.c ****     }
 741:Drivers/STM32F2xx_HAL_Driver/Src/stm32f2xx_hal_dac.c ****   }
 742:Drivers/STM32F2xx_HAL_Driver/Src/stm32f2xx_hal_dac.c **** 
 743:Drivers/STM32F2xx_HAL_Driver/Src/stm32f2xx_hal_dac.c **** 
 744:Drivers/STM32F2xx_HAL_Driver/Src/stm32f2xx_hal_dac.c ****   if (__HAL_DAC_GET_IT_SOURCE(hdac, DAC_IT_DMAUDR2))
 745:Drivers/STM32F2xx_HAL_Driver/Src/stm32f2xx_hal_dac.c ****   {
 746:Drivers/STM32F2xx_HAL_Driver/Src/stm32f2xx_hal_dac.c ****     /* Check underrun flag of DAC channel 2 */
 747:Drivers/STM32F2xx_HAL_Driver/Src/stm32f2xx_hal_dac.c ****     if (__HAL_DAC_GET_FLAG(hdac, DAC_FLAG_DMAUDR2))
 748:Drivers/STM32F2xx_HAL_Driver/Src/stm32f2xx_hal_dac.c ****     {
 749:Drivers/STM32F2xx_HAL_Driver/Src/stm32f2xx_hal_dac.c ****       /* Change DAC state to error state */
 750:Drivers/STM32F2xx_HAL_Driver/Src/stm32f2xx_hal_dac.c ****       hdac->State = HAL_DAC_STATE_ERROR;
 751:Drivers/STM32F2xx_HAL_Driver/Src/stm32f2xx_hal_dac.c **** 
 752:Drivers/STM32F2xx_HAL_Driver/Src/stm32f2xx_hal_dac.c ****       /* Set DAC error code to channel2 DMA underrun error */
 753:Drivers/STM32F2xx_HAL_Driver/Src/stm32f2xx_hal_dac.c ****       SET_BIT(hdac->ErrorCode, HAL_DAC_ERROR_DMAUNDERRUNCH2);
 754:Drivers/STM32F2xx_HAL_Driver/Src/stm32f2xx_hal_dac.c **** 
 755:Drivers/STM32F2xx_HAL_Driver/Src/stm32f2xx_hal_dac.c ****       /* Clear the underrun flag */
ARM GAS  /tmp/ccAK1HYA.s 			page 28


 756:Drivers/STM32F2xx_HAL_Driver/Src/stm32f2xx_hal_dac.c ****       __HAL_DAC_CLEAR_FLAG(hdac, DAC_FLAG_DMAUDR2);
 757:Drivers/STM32F2xx_HAL_Driver/Src/stm32f2xx_hal_dac.c **** 
 758:Drivers/STM32F2xx_HAL_Driver/Src/stm32f2xx_hal_dac.c ****       /* Disable the selected DAC channel2 DMA request */
 759:Drivers/STM32F2xx_HAL_Driver/Src/stm32f2xx_hal_dac.c ****       CLEAR_BIT(hdac->Instance->CR, DAC_CR_DMAEN2);
 760:Drivers/STM32F2xx_HAL_Driver/Src/stm32f2xx_hal_dac.c **** 
 761:Drivers/STM32F2xx_HAL_Driver/Src/stm32f2xx_hal_dac.c ****       /* Error callback */
 762:Drivers/STM32F2xx_HAL_Driver/Src/stm32f2xx_hal_dac.c **** #if (USE_HAL_DAC_REGISTER_CALLBACKS == 1)
 763:Drivers/STM32F2xx_HAL_Driver/Src/stm32f2xx_hal_dac.c ****       hdac->DMAUnderrunCallbackCh2(hdac);
 764:Drivers/STM32F2xx_HAL_Driver/Src/stm32f2xx_hal_dac.c **** #else
 765:Drivers/STM32F2xx_HAL_Driver/Src/stm32f2xx_hal_dac.c ****       HAL_DACEx_DMAUnderrunCallbackCh2(hdac);
 766:Drivers/STM32F2xx_HAL_Driver/Src/stm32f2xx_hal_dac.c **** #endif /* USE_HAL_DAC_REGISTER_CALLBACKS */
 767:Drivers/STM32F2xx_HAL_Driver/Src/stm32f2xx_hal_dac.c ****     }
 768:Drivers/STM32F2xx_HAL_Driver/Src/stm32f2xx_hal_dac.c ****   }
 769:Drivers/STM32F2xx_HAL_Driver/Src/stm32f2xx_hal_dac.c **** 
 770:Drivers/STM32F2xx_HAL_Driver/Src/stm32f2xx_hal_dac.c **** }
 771:Drivers/STM32F2xx_HAL_Driver/Src/stm32f2xx_hal_dac.c **** 
 772:Drivers/STM32F2xx_HAL_Driver/Src/stm32f2xx_hal_dac.c **** /**
 773:Drivers/STM32F2xx_HAL_Driver/Src/stm32f2xx_hal_dac.c ****   * @brief  Set the specified data holding register value for DAC channel.
 774:Drivers/STM32F2xx_HAL_Driver/Src/stm32f2xx_hal_dac.c ****   * @param  hdac pointer to a DAC_HandleTypeDef structure that contains
 775:Drivers/STM32F2xx_HAL_Driver/Src/stm32f2xx_hal_dac.c ****   *         the configuration information for the specified DAC.
 776:Drivers/STM32F2xx_HAL_Driver/Src/stm32f2xx_hal_dac.c ****   * @param  Channel The selected DAC channel.
 777:Drivers/STM32F2xx_HAL_Driver/Src/stm32f2xx_hal_dac.c ****   *          This parameter can be one of the following values:
 778:Drivers/STM32F2xx_HAL_Driver/Src/stm32f2xx_hal_dac.c ****   *            @arg DAC_CHANNEL_1: DAC Channel1 selected
 779:Drivers/STM32F2xx_HAL_Driver/Src/stm32f2xx_hal_dac.c ****   *            @arg DAC_CHANNEL_2: DAC Channel2 selected
 780:Drivers/STM32F2xx_HAL_Driver/Src/stm32f2xx_hal_dac.c ****   * @param  Alignment Specifies the data alignment.
 781:Drivers/STM32F2xx_HAL_Driver/Src/stm32f2xx_hal_dac.c ****   *          This parameter can be one of the following values:
 782:Drivers/STM32F2xx_HAL_Driver/Src/stm32f2xx_hal_dac.c ****   *            @arg DAC_ALIGN_8B_R: 8bit right data alignment selected
 783:Drivers/STM32F2xx_HAL_Driver/Src/stm32f2xx_hal_dac.c ****   *            @arg DAC_ALIGN_12B_L: 12bit left data alignment selected
 784:Drivers/STM32F2xx_HAL_Driver/Src/stm32f2xx_hal_dac.c ****   *            @arg DAC_ALIGN_12B_R: 12bit right data alignment selected
 785:Drivers/STM32F2xx_HAL_Driver/Src/stm32f2xx_hal_dac.c ****   * @param  Data Data to be loaded in the selected data holding register.
 786:Drivers/STM32F2xx_HAL_Driver/Src/stm32f2xx_hal_dac.c ****   * @retval HAL status
 787:Drivers/STM32F2xx_HAL_Driver/Src/stm32f2xx_hal_dac.c ****   */
 788:Drivers/STM32F2xx_HAL_Driver/Src/stm32f2xx_hal_dac.c **** HAL_StatusTypeDef HAL_DAC_SetValue(DAC_HandleTypeDef *hdac, uint32_t Channel, uint32_t Alignment, u
 789:Drivers/STM32F2xx_HAL_Driver/Src/stm32f2xx_hal_dac.c **** {
 706              		.loc 1 789 1 view -0
 707              		.cfi_startproc
 708              		@ args = 0, pretend = 0, frame = 8
 709              		@ frame_needed = 0, uses_anonymous_args = 0
 710              		@ link register save eliminated.
 711              		.loc 1 789 1 is_stmt 0 view .LVU197
 712 0000 10B4     		push	{r4}
 713              	.LCFI12:
 714              		.cfi_def_cfa_offset 4
 715              		.cfi_offset 4, -4
 716 0002 83B0     		sub	sp, sp, #12
 717              	.LCFI13:
 718              		.cfi_def_cfa_offset 16
 790:Drivers/STM32F2xx_HAL_Driver/Src/stm32f2xx_hal_dac.c ****   __IO uint32_t tmp = 0UL;
 719              		.loc 1 790 3 is_stmt 1 view .LVU198
 720              		.loc 1 790 17 is_stmt 0 view .LVU199
 721 0004 0024     		movs	r4, #0
 722 0006 0194     		str	r4, [sp, #4]
 791:Drivers/STM32F2xx_HAL_Driver/Src/stm32f2xx_hal_dac.c **** 
 792:Drivers/STM32F2xx_HAL_Driver/Src/stm32f2xx_hal_dac.c ****   /* Check the parameters */
 793:Drivers/STM32F2xx_HAL_Driver/Src/stm32f2xx_hal_dac.c ****   assert_param(IS_DAC_CHANNEL(Channel));
 723              		.loc 1 793 3 is_stmt 1 view .LVU200
 794:Drivers/STM32F2xx_HAL_Driver/Src/stm32f2xx_hal_dac.c ****   assert_param(IS_DAC_ALIGN(Alignment));
ARM GAS  /tmp/ccAK1HYA.s 			page 29


 724              		.loc 1 794 3 view .LVU201
 795:Drivers/STM32F2xx_HAL_Driver/Src/stm32f2xx_hal_dac.c ****   assert_param(IS_DAC_DATA(Data));
 725              		.loc 1 795 3 view .LVU202
 796:Drivers/STM32F2xx_HAL_Driver/Src/stm32f2xx_hal_dac.c **** 
 797:Drivers/STM32F2xx_HAL_Driver/Src/stm32f2xx_hal_dac.c ****   tmp = (uint32_t)hdac->Instance;
 726              		.loc 1 797 3 view .LVU203
 727              		.loc 1 797 23 is_stmt 0 view .LVU204
 728 0008 0068     		ldr	r0, [r0]
 729              	.LVL50:
 730              		.loc 1 797 7 view .LVU205
 731 000a 0190     		str	r0, [sp, #4]
 798:Drivers/STM32F2xx_HAL_Driver/Src/stm32f2xx_hal_dac.c ****   if (Channel == DAC_CHANNEL_1)
 732              		.loc 1 798 3 is_stmt 1 view .LVU206
 733              		.loc 1 798 6 is_stmt 0 view .LVU207
 734 000c 49B9     		cbnz	r1, .L55
 799:Drivers/STM32F2xx_HAL_Driver/Src/stm32f2xx_hal_dac.c ****   {
 800:Drivers/STM32F2xx_HAL_Driver/Src/stm32f2xx_hal_dac.c ****     tmp += DAC_DHR12R1_ALIGNMENT(Alignment);
 735              		.loc 1 800 5 is_stmt 1 view .LVU208
 736              		.loc 1 800 9 is_stmt 0 view .LVU209
 737 000e 0199     		ldr	r1, [sp, #4]
 738              	.LVL51:
 739              		.loc 1 800 9 view .LVU210
 740 0010 0A44     		add	r2, r2, r1
 741              	.LVL52:
 742              		.loc 1 800 9 view .LVU211
 743 0012 0832     		adds	r2, r2, #8
 744 0014 0192     		str	r2, [sp, #4]
 745              	.L56:
 801:Drivers/STM32F2xx_HAL_Driver/Src/stm32f2xx_hal_dac.c ****   }
 802:Drivers/STM32F2xx_HAL_Driver/Src/stm32f2xx_hal_dac.c **** 
 803:Drivers/STM32F2xx_HAL_Driver/Src/stm32f2xx_hal_dac.c ****   else
 804:Drivers/STM32F2xx_HAL_Driver/Src/stm32f2xx_hal_dac.c ****   {
 805:Drivers/STM32F2xx_HAL_Driver/Src/stm32f2xx_hal_dac.c ****     tmp += DAC_DHR12R2_ALIGNMENT(Alignment);
 806:Drivers/STM32F2xx_HAL_Driver/Src/stm32f2xx_hal_dac.c ****   }
 807:Drivers/STM32F2xx_HAL_Driver/Src/stm32f2xx_hal_dac.c **** 
 808:Drivers/STM32F2xx_HAL_Driver/Src/stm32f2xx_hal_dac.c **** 
 809:Drivers/STM32F2xx_HAL_Driver/Src/stm32f2xx_hal_dac.c ****   /* Set the DAC channel selected data holding register */
 810:Drivers/STM32F2xx_HAL_Driver/Src/stm32f2xx_hal_dac.c ****   *(__IO uint32_t *) tmp = Data;
 746              		.loc 1 810 3 is_stmt 1 view .LVU212
 747              		.loc 1 810 4 is_stmt 0 view .LVU213
 748 0016 019A     		ldr	r2, [sp, #4]
 749              		.loc 1 810 26 view .LVU214
 750 0018 1360     		str	r3, [r2]
 811:Drivers/STM32F2xx_HAL_Driver/Src/stm32f2xx_hal_dac.c **** 
 812:Drivers/STM32F2xx_HAL_Driver/Src/stm32f2xx_hal_dac.c ****   /* Return function status */
 813:Drivers/STM32F2xx_HAL_Driver/Src/stm32f2xx_hal_dac.c ****   return HAL_OK;
 751              		.loc 1 813 3 is_stmt 1 view .LVU215
 814:Drivers/STM32F2xx_HAL_Driver/Src/stm32f2xx_hal_dac.c **** }
 752              		.loc 1 814 1 is_stmt 0 view .LVU216
 753 001a 0020     		movs	r0, #0
 754 001c 03B0     		add	sp, sp, #12
 755              	.LCFI14:
 756              		.cfi_remember_state
 757              		.cfi_def_cfa_offset 4
 758              		@ sp needed
 759 001e 10BC     		pop	{r4}
 760              	.LCFI15:
ARM GAS  /tmp/ccAK1HYA.s 			page 30


 761              		.cfi_restore 4
 762              		.cfi_def_cfa_offset 0
 763 0020 7047     		bx	lr
 764              	.LVL53:
 765              	.L55:
 766              	.LCFI16:
 767              		.cfi_restore_state
 805:Drivers/STM32F2xx_HAL_Driver/Src/stm32f2xx_hal_dac.c ****   }
 768              		.loc 1 805 5 is_stmt 1 view .LVU217
 805:Drivers/STM32F2xx_HAL_Driver/Src/stm32f2xx_hal_dac.c ****   }
 769              		.loc 1 805 9 is_stmt 0 view .LVU218
 770 0022 0199     		ldr	r1, [sp, #4]
 771              	.LVL54:
 805:Drivers/STM32F2xx_HAL_Driver/Src/stm32f2xx_hal_dac.c ****   }
 772              		.loc 1 805 9 view .LVU219
 773 0024 0A44     		add	r2, r2, r1
 774              	.LVL55:
 805:Drivers/STM32F2xx_HAL_Driver/Src/stm32f2xx_hal_dac.c ****   }
 775              		.loc 1 805 9 view .LVU220
 776 0026 1432     		adds	r2, r2, #20
 777 0028 0192     		str	r2, [sp, #4]
 778 002a F4E7     		b	.L56
 779              		.cfi_endproc
 780              	.LFE81:
 782              		.section	.text.HAL_DAC_ConvCpltCallbackCh1,"ax",%progbits
 783              		.align	1
 784              		.weak	HAL_DAC_ConvCpltCallbackCh1
 785              		.syntax unified
 786              		.thumb
 787              		.thumb_func
 788              		.fpu softvfp
 790              	HAL_DAC_ConvCpltCallbackCh1:
 791              	.LVL56:
 792              	.LFB82:
 815:Drivers/STM32F2xx_HAL_Driver/Src/stm32f2xx_hal_dac.c **** 
 816:Drivers/STM32F2xx_HAL_Driver/Src/stm32f2xx_hal_dac.c **** /**
 817:Drivers/STM32F2xx_HAL_Driver/Src/stm32f2xx_hal_dac.c ****   * @brief  Conversion complete callback in non-blocking mode for Channel1
 818:Drivers/STM32F2xx_HAL_Driver/Src/stm32f2xx_hal_dac.c ****   * @param  hdac pointer to a DAC_HandleTypeDef structure that contains
 819:Drivers/STM32F2xx_HAL_Driver/Src/stm32f2xx_hal_dac.c ****   *         the configuration information for the specified DAC.
 820:Drivers/STM32F2xx_HAL_Driver/Src/stm32f2xx_hal_dac.c ****   * @retval None
 821:Drivers/STM32F2xx_HAL_Driver/Src/stm32f2xx_hal_dac.c ****   */
 822:Drivers/STM32F2xx_HAL_Driver/Src/stm32f2xx_hal_dac.c **** __weak void HAL_DAC_ConvCpltCallbackCh1(DAC_HandleTypeDef *hdac)
 823:Drivers/STM32F2xx_HAL_Driver/Src/stm32f2xx_hal_dac.c **** {
 793              		.loc 1 823 1 is_stmt 1 view -0
 794              		.cfi_startproc
 795              		@ args = 0, pretend = 0, frame = 0
 796              		@ frame_needed = 0, uses_anonymous_args = 0
 797              		@ link register save eliminated.
 824:Drivers/STM32F2xx_HAL_Driver/Src/stm32f2xx_hal_dac.c ****   /* Prevent unused argument(s) compilation warning */
 825:Drivers/STM32F2xx_HAL_Driver/Src/stm32f2xx_hal_dac.c ****   UNUSED(hdac);
 798              		.loc 1 825 3 view .LVU222
 826:Drivers/STM32F2xx_HAL_Driver/Src/stm32f2xx_hal_dac.c **** 
 827:Drivers/STM32F2xx_HAL_Driver/Src/stm32f2xx_hal_dac.c ****   /* NOTE : This function should not be modified, when the callback is needed,
 828:Drivers/STM32F2xx_HAL_Driver/Src/stm32f2xx_hal_dac.c ****             the HAL_DAC_ConvCpltCallbackCh1 could be implemented in the user file
 829:Drivers/STM32F2xx_HAL_Driver/Src/stm32f2xx_hal_dac.c ****    */
 830:Drivers/STM32F2xx_HAL_Driver/Src/stm32f2xx_hal_dac.c **** }
 799              		.loc 1 830 1 is_stmt 0 view .LVU223
ARM GAS  /tmp/ccAK1HYA.s 			page 31


 800 0000 7047     		bx	lr
 801              		.cfi_endproc
 802              	.LFE82:
 804              		.section	.text.DAC_DMAConvCpltCh1,"ax",%progbits
 805              		.align	1
 806              		.global	DAC_DMAConvCpltCh1
 807              		.syntax unified
 808              		.thumb
 809              		.thumb_func
 810              		.fpu softvfp
 812              	DAC_DMAConvCpltCh1:
 813              	.LVL57:
 814              	.LFB90:
 831:Drivers/STM32F2xx_HAL_Driver/Src/stm32f2xx_hal_dac.c **** 
 832:Drivers/STM32F2xx_HAL_Driver/Src/stm32f2xx_hal_dac.c **** /**
 833:Drivers/STM32F2xx_HAL_Driver/Src/stm32f2xx_hal_dac.c ****   * @brief  Conversion half DMA transfer callback in non-blocking mode for Channel1
 834:Drivers/STM32F2xx_HAL_Driver/Src/stm32f2xx_hal_dac.c ****   * @param  hdac pointer to a DAC_HandleTypeDef structure that contains
 835:Drivers/STM32F2xx_HAL_Driver/Src/stm32f2xx_hal_dac.c ****   *         the configuration information for the specified DAC.
 836:Drivers/STM32F2xx_HAL_Driver/Src/stm32f2xx_hal_dac.c ****   * @retval None
 837:Drivers/STM32F2xx_HAL_Driver/Src/stm32f2xx_hal_dac.c ****   */
 838:Drivers/STM32F2xx_HAL_Driver/Src/stm32f2xx_hal_dac.c **** __weak void HAL_DAC_ConvHalfCpltCallbackCh1(DAC_HandleTypeDef *hdac)
 839:Drivers/STM32F2xx_HAL_Driver/Src/stm32f2xx_hal_dac.c **** {
 840:Drivers/STM32F2xx_HAL_Driver/Src/stm32f2xx_hal_dac.c ****   /* Prevent unused argument(s) compilation warning */
 841:Drivers/STM32F2xx_HAL_Driver/Src/stm32f2xx_hal_dac.c ****   UNUSED(hdac);
 842:Drivers/STM32F2xx_HAL_Driver/Src/stm32f2xx_hal_dac.c **** 
 843:Drivers/STM32F2xx_HAL_Driver/Src/stm32f2xx_hal_dac.c ****   /* NOTE : This function should not be modified, when the callback is needed,
 844:Drivers/STM32F2xx_HAL_Driver/Src/stm32f2xx_hal_dac.c ****             the HAL_DAC_ConvHalfCpltCallbackCh1 could be implemented in the user file
 845:Drivers/STM32F2xx_HAL_Driver/Src/stm32f2xx_hal_dac.c ****    */
 846:Drivers/STM32F2xx_HAL_Driver/Src/stm32f2xx_hal_dac.c **** }
 847:Drivers/STM32F2xx_HAL_Driver/Src/stm32f2xx_hal_dac.c **** 
 848:Drivers/STM32F2xx_HAL_Driver/Src/stm32f2xx_hal_dac.c **** /**
 849:Drivers/STM32F2xx_HAL_Driver/Src/stm32f2xx_hal_dac.c ****   * @brief  Error DAC callback for Channel1.
 850:Drivers/STM32F2xx_HAL_Driver/Src/stm32f2xx_hal_dac.c ****   * @param  hdac pointer to a DAC_HandleTypeDef structure that contains
 851:Drivers/STM32F2xx_HAL_Driver/Src/stm32f2xx_hal_dac.c ****   *         the configuration information for the specified DAC.
 852:Drivers/STM32F2xx_HAL_Driver/Src/stm32f2xx_hal_dac.c ****   * @retval None
 853:Drivers/STM32F2xx_HAL_Driver/Src/stm32f2xx_hal_dac.c ****   */
 854:Drivers/STM32F2xx_HAL_Driver/Src/stm32f2xx_hal_dac.c **** __weak void HAL_DAC_ErrorCallbackCh1(DAC_HandleTypeDef *hdac)
 855:Drivers/STM32F2xx_HAL_Driver/Src/stm32f2xx_hal_dac.c **** {
 856:Drivers/STM32F2xx_HAL_Driver/Src/stm32f2xx_hal_dac.c ****   /* Prevent unused argument(s) compilation warning */
 857:Drivers/STM32F2xx_HAL_Driver/Src/stm32f2xx_hal_dac.c ****   UNUSED(hdac);
 858:Drivers/STM32F2xx_HAL_Driver/Src/stm32f2xx_hal_dac.c **** 
 859:Drivers/STM32F2xx_HAL_Driver/Src/stm32f2xx_hal_dac.c ****   /* NOTE : This function should not be modified, when the callback is needed,
 860:Drivers/STM32F2xx_HAL_Driver/Src/stm32f2xx_hal_dac.c ****             the HAL_DAC_ErrorCallbackCh1 could be implemented in the user file
 861:Drivers/STM32F2xx_HAL_Driver/Src/stm32f2xx_hal_dac.c ****    */
 862:Drivers/STM32F2xx_HAL_Driver/Src/stm32f2xx_hal_dac.c **** }
 863:Drivers/STM32F2xx_HAL_Driver/Src/stm32f2xx_hal_dac.c **** 
 864:Drivers/STM32F2xx_HAL_Driver/Src/stm32f2xx_hal_dac.c **** /**
 865:Drivers/STM32F2xx_HAL_Driver/Src/stm32f2xx_hal_dac.c ****   * @brief  DMA underrun DAC callback for channel1.
 866:Drivers/STM32F2xx_HAL_Driver/Src/stm32f2xx_hal_dac.c ****   * @param  hdac pointer to a DAC_HandleTypeDef structure that contains
 867:Drivers/STM32F2xx_HAL_Driver/Src/stm32f2xx_hal_dac.c ****   *         the configuration information for the specified DAC.
 868:Drivers/STM32F2xx_HAL_Driver/Src/stm32f2xx_hal_dac.c ****   * @retval None
 869:Drivers/STM32F2xx_HAL_Driver/Src/stm32f2xx_hal_dac.c ****   */
 870:Drivers/STM32F2xx_HAL_Driver/Src/stm32f2xx_hal_dac.c **** __weak void HAL_DAC_DMAUnderrunCallbackCh1(DAC_HandleTypeDef *hdac)
 871:Drivers/STM32F2xx_HAL_Driver/Src/stm32f2xx_hal_dac.c **** {
 872:Drivers/STM32F2xx_HAL_Driver/Src/stm32f2xx_hal_dac.c ****   /* Prevent unused argument(s) compilation warning */
 873:Drivers/STM32F2xx_HAL_Driver/Src/stm32f2xx_hal_dac.c ****   UNUSED(hdac);
 874:Drivers/STM32F2xx_HAL_Driver/Src/stm32f2xx_hal_dac.c **** 
ARM GAS  /tmp/ccAK1HYA.s 			page 32


 875:Drivers/STM32F2xx_HAL_Driver/Src/stm32f2xx_hal_dac.c ****   /* NOTE : This function should not be modified, when the callback is needed,
 876:Drivers/STM32F2xx_HAL_Driver/Src/stm32f2xx_hal_dac.c ****             the HAL_DAC_DMAUnderrunCallbackCh1 could be implemented in the user file
 877:Drivers/STM32F2xx_HAL_Driver/Src/stm32f2xx_hal_dac.c ****    */
 878:Drivers/STM32F2xx_HAL_Driver/Src/stm32f2xx_hal_dac.c **** }
 879:Drivers/STM32F2xx_HAL_Driver/Src/stm32f2xx_hal_dac.c **** 
 880:Drivers/STM32F2xx_HAL_Driver/Src/stm32f2xx_hal_dac.c **** /**
 881:Drivers/STM32F2xx_HAL_Driver/Src/stm32f2xx_hal_dac.c ****   * @}
 882:Drivers/STM32F2xx_HAL_Driver/Src/stm32f2xx_hal_dac.c ****   */
 883:Drivers/STM32F2xx_HAL_Driver/Src/stm32f2xx_hal_dac.c **** 
 884:Drivers/STM32F2xx_HAL_Driver/Src/stm32f2xx_hal_dac.c **** /** @defgroup DAC_Exported_Functions_Group3 Peripheral Control functions
 885:Drivers/STM32F2xx_HAL_Driver/Src/stm32f2xx_hal_dac.c ****   *  @brief    Peripheral Control functions
 886:Drivers/STM32F2xx_HAL_Driver/Src/stm32f2xx_hal_dac.c ****   *
 887:Drivers/STM32F2xx_HAL_Driver/Src/stm32f2xx_hal_dac.c **** @verbatim
 888:Drivers/STM32F2xx_HAL_Driver/Src/stm32f2xx_hal_dac.c ****   ==============================================================================
 889:Drivers/STM32F2xx_HAL_Driver/Src/stm32f2xx_hal_dac.c ****              ##### Peripheral Control functions #####
 890:Drivers/STM32F2xx_HAL_Driver/Src/stm32f2xx_hal_dac.c ****   ==============================================================================
 891:Drivers/STM32F2xx_HAL_Driver/Src/stm32f2xx_hal_dac.c ****     [..]  This section provides functions allowing to:
 892:Drivers/STM32F2xx_HAL_Driver/Src/stm32f2xx_hal_dac.c ****       (+) Configure channels.
 893:Drivers/STM32F2xx_HAL_Driver/Src/stm32f2xx_hal_dac.c ****       (+) Set the specified data holding register value for DAC channel.
 894:Drivers/STM32F2xx_HAL_Driver/Src/stm32f2xx_hal_dac.c **** 
 895:Drivers/STM32F2xx_HAL_Driver/Src/stm32f2xx_hal_dac.c **** @endverbatim
 896:Drivers/STM32F2xx_HAL_Driver/Src/stm32f2xx_hal_dac.c ****   * @{
 897:Drivers/STM32F2xx_HAL_Driver/Src/stm32f2xx_hal_dac.c ****   */
 898:Drivers/STM32F2xx_HAL_Driver/Src/stm32f2xx_hal_dac.c **** 
 899:Drivers/STM32F2xx_HAL_Driver/Src/stm32f2xx_hal_dac.c **** /**
 900:Drivers/STM32F2xx_HAL_Driver/Src/stm32f2xx_hal_dac.c ****   * @brief  Returns the last data output value of the selected DAC channel.
 901:Drivers/STM32F2xx_HAL_Driver/Src/stm32f2xx_hal_dac.c ****   * @param  hdac pointer to a DAC_HandleTypeDef structure that contains
 902:Drivers/STM32F2xx_HAL_Driver/Src/stm32f2xx_hal_dac.c ****   *         the configuration information for the specified DAC.
 903:Drivers/STM32F2xx_HAL_Driver/Src/stm32f2xx_hal_dac.c ****   * @param  Channel The selected DAC channel.
 904:Drivers/STM32F2xx_HAL_Driver/Src/stm32f2xx_hal_dac.c ****   *          This parameter can be one of the following values:
 905:Drivers/STM32F2xx_HAL_Driver/Src/stm32f2xx_hal_dac.c ****   *            @arg DAC_CHANNEL_1: DAC Channel1 selected
 906:Drivers/STM32F2xx_HAL_Driver/Src/stm32f2xx_hal_dac.c ****   *            @arg DAC_CHANNEL_2: DAC Channel2 selected
 907:Drivers/STM32F2xx_HAL_Driver/Src/stm32f2xx_hal_dac.c ****   * @retval The selected DAC channel data output value.
 908:Drivers/STM32F2xx_HAL_Driver/Src/stm32f2xx_hal_dac.c ****   */
 909:Drivers/STM32F2xx_HAL_Driver/Src/stm32f2xx_hal_dac.c **** uint32_t HAL_DAC_GetValue(DAC_HandleTypeDef *hdac, uint32_t Channel)
 910:Drivers/STM32F2xx_HAL_Driver/Src/stm32f2xx_hal_dac.c **** {
 911:Drivers/STM32F2xx_HAL_Driver/Src/stm32f2xx_hal_dac.c ****   uint32_t result;
 912:Drivers/STM32F2xx_HAL_Driver/Src/stm32f2xx_hal_dac.c **** 
 913:Drivers/STM32F2xx_HAL_Driver/Src/stm32f2xx_hal_dac.c ****   /* Check the parameters */
 914:Drivers/STM32F2xx_HAL_Driver/Src/stm32f2xx_hal_dac.c ****   assert_param(IS_DAC_CHANNEL(Channel));
 915:Drivers/STM32F2xx_HAL_Driver/Src/stm32f2xx_hal_dac.c **** 
 916:Drivers/STM32F2xx_HAL_Driver/Src/stm32f2xx_hal_dac.c ****   if (Channel == DAC_CHANNEL_1)
 917:Drivers/STM32F2xx_HAL_Driver/Src/stm32f2xx_hal_dac.c ****   {
 918:Drivers/STM32F2xx_HAL_Driver/Src/stm32f2xx_hal_dac.c ****     result = hdac->Instance->DOR1;
 919:Drivers/STM32F2xx_HAL_Driver/Src/stm32f2xx_hal_dac.c ****   }
 920:Drivers/STM32F2xx_HAL_Driver/Src/stm32f2xx_hal_dac.c **** 
 921:Drivers/STM32F2xx_HAL_Driver/Src/stm32f2xx_hal_dac.c ****   else
 922:Drivers/STM32F2xx_HAL_Driver/Src/stm32f2xx_hal_dac.c ****   {
 923:Drivers/STM32F2xx_HAL_Driver/Src/stm32f2xx_hal_dac.c ****     result = hdac->Instance->DOR2;
 924:Drivers/STM32F2xx_HAL_Driver/Src/stm32f2xx_hal_dac.c ****   }
 925:Drivers/STM32F2xx_HAL_Driver/Src/stm32f2xx_hal_dac.c **** 
 926:Drivers/STM32F2xx_HAL_Driver/Src/stm32f2xx_hal_dac.c ****   /* Returns the DAC channel data output register value */
 927:Drivers/STM32F2xx_HAL_Driver/Src/stm32f2xx_hal_dac.c ****   return result;
 928:Drivers/STM32F2xx_HAL_Driver/Src/stm32f2xx_hal_dac.c **** }
 929:Drivers/STM32F2xx_HAL_Driver/Src/stm32f2xx_hal_dac.c **** 
 930:Drivers/STM32F2xx_HAL_Driver/Src/stm32f2xx_hal_dac.c **** /**
 931:Drivers/STM32F2xx_HAL_Driver/Src/stm32f2xx_hal_dac.c ****   * @brief  Configures the selected DAC channel.
ARM GAS  /tmp/ccAK1HYA.s 			page 33


 932:Drivers/STM32F2xx_HAL_Driver/Src/stm32f2xx_hal_dac.c ****   * @param  hdac pointer to a DAC_HandleTypeDef structure that contains
 933:Drivers/STM32F2xx_HAL_Driver/Src/stm32f2xx_hal_dac.c ****   *         the configuration information for the specified DAC.
 934:Drivers/STM32F2xx_HAL_Driver/Src/stm32f2xx_hal_dac.c ****   * @param  sConfig DAC configuration structure.
 935:Drivers/STM32F2xx_HAL_Driver/Src/stm32f2xx_hal_dac.c ****   * @param  Channel The selected DAC channel.
 936:Drivers/STM32F2xx_HAL_Driver/Src/stm32f2xx_hal_dac.c ****   *          This parameter can be one of the following values:
 937:Drivers/STM32F2xx_HAL_Driver/Src/stm32f2xx_hal_dac.c ****   *            @arg DAC_CHANNEL_1: DAC Channel1 selected
 938:Drivers/STM32F2xx_HAL_Driver/Src/stm32f2xx_hal_dac.c ****   *            @arg DAC_CHANNEL_2: DAC Channel2 selected
 939:Drivers/STM32F2xx_HAL_Driver/Src/stm32f2xx_hal_dac.c ****   * @retval HAL status
 940:Drivers/STM32F2xx_HAL_Driver/Src/stm32f2xx_hal_dac.c ****   */
 941:Drivers/STM32F2xx_HAL_Driver/Src/stm32f2xx_hal_dac.c **** HAL_StatusTypeDef HAL_DAC_ConfigChannel(DAC_HandleTypeDef *hdac, DAC_ChannelConfTypeDef *sConfig, u
 942:Drivers/STM32F2xx_HAL_Driver/Src/stm32f2xx_hal_dac.c **** {
 943:Drivers/STM32F2xx_HAL_Driver/Src/stm32f2xx_hal_dac.c ****   uint32_t tmpreg1;
 944:Drivers/STM32F2xx_HAL_Driver/Src/stm32f2xx_hal_dac.c ****   uint32_t tmpreg2;
 945:Drivers/STM32F2xx_HAL_Driver/Src/stm32f2xx_hal_dac.c **** 
 946:Drivers/STM32F2xx_HAL_Driver/Src/stm32f2xx_hal_dac.c ****   /* Check the DAC parameters */
 947:Drivers/STM32F2xx_HAL_Driver/Src/stm32f2xx_hal_dac.c ****   assert_param(IS_DAC_TRIGGER(sConfig->DAC_Trigger));
 948:Drivers/STM32F2xx_HAL_Driver/Src/stm32f2xx_hal_dac.c ****   assert_param(IS_DAC_OUTPUT_BUFFER_STATE(sConfig->DAC_OutputBuffer));
 949:Drivers/STM32F2xx_HAL_Driver/Src/stm32f2xx_hal_dac.c ****   assert_param(IS_DAC_CHANNEL(Channel));
 950:Drivers/STM32F2xx_HAL_Driver/Src/stm32f2xx_hal_dac.c **** 
 951:Drivers/STM32F2xx_HAL_Driver/Src/stm32f2xx_hal_dac.c ****   /* Process locked */
 952:Drivers/STM32F2xx_HAL_Driver/Src/stm32f2xx_hal_dac.c ****   __HAL_LOCK(hdac);
 953:Drivers/STM32F2xx_HAL_Driver/Src/stm32f2xx_hal_dac.c **** 
 954:Drivers/STM32F2xx_HAL_Driver/Src/stm32f2xx_hal_dac.c ****   /* Change DAC state */
 955:Drivers/STM32F2xx_HAL_Driver/Src/stm32f2xx_hal_dac.c ****   hdac->State = HAL_DAC_STATE_BUSY;
 956:Drivers/STM32F2xx_HAL_Driver/Src/stm32f2xx_hal_dac.c **** 
 957:Drivers/STM32F2xx_HAL_Driver/Src/stm32f2xx_hal_dac.c ****   /* Get the DAC CR value */
 958:Drivers/STM32F2xx_HAL_Driver/Src/stm32f2xx_hal_dac.c ****   tmpreg1 = hdac->Instance->CR;
 959:Drivers/STM32F2xx_HAL_Driver/Src/stm32f2xx_hal_dac.c ****   /* Clear BOFFx, TENx, TSELx, WAVEx and MAMPx bits */
 960:Drivers/STM32F2xx_HAL_Driver/Src/stm32f2xx_hal_dac.c ****   tmpreg1 &= ~(((uint32_t)(DAC_CR_MAMP1 | DAC_CR_WAVE1 | DAC_CR_TSEL1 | DAC_CR_TEN1 | DAC_CR_BOFF1)
 961:Drivers/STM32F2xx_HAL_Driver/Src/stm32f2xx_hal_dac.c ****   /* Configure for the selected DAC channel: buffer output, trigger */
 962:Drivers/STM32F2xx_HAL_Driver/Src/stm32f2xx_hal_dac.c ****   /* Set TSELx and TENx bits according to DAC_Trigger value */
 963:Drivers/STM32F2xx_HAL_Driver/Src/stm32f2xx_hal_dac.c ****   /* Set BOFFx bit according to DAC_OutputBuffer value */
 964:Drivers/STM32F2xx_HAL_Driver/Src/stm32f2xx_hal_dac.c ****   tmpreg2 = (sConfig->DAC_Trigger | sConfig->DAC_OutputBuffer);
 965:Drivers/STM32F2xx_HAL_Driver/Src/stm32f2xx_hal_dac.c ****   /* Calculate CR register value depending on DAC_Channel */
 966:Drivers/STM32F2xx_HAL_Driver/Src/stm32f2xx_hal_dac.c ****   tmpreg1 |= tmpreg2 << (Channel & 0x10UL);
 967:Drivers/STM32F2xx_HAL_Driver/Src/stm32f2xx_hal_dac.c ****   /* Write to DAC CR */
 968:Drivers/STM32F2xx_HAL_Driver/Src/stm32f2xx_hal_dac.c ****   hdac->Instance->CR = tmpreg1;
 969:Drivers/STM32F2xx_HAL_Driver/Src/stm32f2xx_hal_dac.c ****   /* Disable wave generation */
 970:Drivers/STM32F2xx_HAL_Driver/Src/stm32f2xx_hal_dac.c ****   CLEAR_BIT(hdac->Instance->CR, (DAC_CR_WAVE1 << (Channel & 0x10UL)));
 971:Drivers/STM32F2xx_HAL_Driver/Src/stm32f2xx_hal_dac.c **** 
 972:Drivers/STM32F2xx_HAL_Driver/Src/stm32f2xx_hal_dac.c ****   /* Change DAC state */
 973:Drivers/STM32F2xx_HAL_Driver/Src/stm32f2xx_hal_dac.c ****   hdac->State = HAL_DAC_STATE_READY;
 974:Drivers/STM32F2xx_HAL_Driver/Src/stm32f2xx_hal_dac.c **** 
 975:Drivers/STM32F2xx_HAL_Driver/Src/stm32f2xx_hal_dac.c ****   /* Process unlocked */
 976:Drivers/STM32F2xx_HAL_Driver/Src/stm32f2xx_hal_dac.c ****   __HAL_UNLOCK(hdac);
 977:Drivers/STM32F2xx_HAL_Driver/Src/stm32f2xx_hal_dac.c **** 
 978:Drivers/STM32F2xx_HAL_Driver/Src/stm32f2xx_hal_dac.c ****   /* Return function status */
 979:Drivers/STM32F2xx_HAL_Driver/Src/stm32f2xx_hal_dac.c ****   return HAL_OK;
 980:Drivers/STM32F2xx_HAL_Driver/Src/stm32f2xx_hal_dac.c **** }
 981:Drivers/STM32F2xx_HAL_Driver/Src/stm32f2xx_hal_dac.c **** 
 982:Drivers/STM32F2xx_HAL_Driver/Src/stm32f2xx_hal_dac.c **** /**
 983:Drivers/STM32F2xx_HAL_Driver/Src/stm32f2xx_hal_dac.c ****   * @}
 984:Drivers/STM32F2xx_HAL_Driver/Src/stm32f2xx_hal_dac.c ****   */
 985:Drivers/STM32F2xx_HAL_Driver/Src/stm32f2xx_hal_dac.c **** 
 986:Drivers/STM32F2xx_HAL_Driver/Src/stm32f2xx_hal_dac.c **** /** @defgroup DAC_Exported_Functions_Group4 Peripheral State and Errors functions
 987:Drivers/STM32F2xx_HAL_Driver/Src/stm32f2xx_hal_dac.c ****   *  @brief   Peripheral State and Errors functions
 988:Drivers/STM32F2xx_HAL_Driver/Src/stm32f2xx_hal_dac.c ****   *
ARM GAS  /tmp/ccAK1HYA.s 			page 34


 989:Drivers/STM32F2xx_HAL_Driver/Src/stm32f2xx_hal_dac.c **** @verbatim
 990:Drivers/STM32F2xx_HAL_Driver/Src/stm32f2xx_hal_dac.c ****   ==============================================================================
 991:Drivers/STM32F2xx_HAL_Driver/Src/stm32f2xx_hal_dac.c ****             ##### Peripheral State and Errors functions #####
 992:Drivers/STM32F2xx_HAL_Driver/Src/stm32f2xx_hal_dac.c ****   ==============================================================================
 993:Drivers/STM32F2xx_HAL_Driver/Src/stm32f2xx_hal_dac.c ****     [..]
 994:Drivers/STM32F2xx_HAL_Driver/Src/stm32f2xx_hal_dac.c ****     This subsection provides functions allowing to
 995:Drivers/STM32F2xx_HAL_Driver/Src/stm32f2xx_hal_dac.c ****       (+) Check the DAC state.
 996:Drivers/STM32F2xx_HAL_Driver/Src/stm32f2xx_hal_dac.c ****       (+) Check the DAC Errors.
 997:Drivers/STM32F2xx_HAL_Driver/Src/stm32f2xx_hal_dac.c **** 
 998:Drivers/STM32F2xx_HAL_Driver/Src/stm32f2xx_hal_dac.c **** @endverbatim
 999:Drivers/STM32F2xx_HAL_Driver/Src/stm32f2xx_hal_dac.c ****   * @{
1000:Drivers/STM32F2xx_HAL_Driver/Src/stm32f2xx_hal_dac.c ****   */
1001:Drivers/STM32F2xx_HAL_Driver/Src/stm32f2xx_hal_dac.c **** 
1002:Drivers/STM32F2xx_HAL_Driver/Src/stm32f2xx_hal_dac.c **** /**
1003:Drivers/STM32F2xx_HAL_Driver/Src/stm32f2xx_hal_dac.c ****   * @brief  return the DAC handle state
1004:Drivers/STM32F2xx_HAL_Driver/Src/stm32f2xx_hal_dac.c ****   * @param  hdac pointer to a DAC_HandleTypeDef structure that contains
1005:Drivers/STM32F2xx_HAL_Driver/Src/stm32f2xx_hal_dac.c ****   *         the configuration information for the specified DAC.
1006:Drivers/STM32F2xx_HAL_Driver/Src/stm32f2xx_hal_dac.c ****   * @retval HAL state
1007:Drivers/STM32F2xx_HAL_Driver/Src/stm32f2xx_hal_dac.c ****   */
1008:Drivers/STM32F2xx_HAL_Driver/Src/stm32f2xx_hal_dac.c **** HAL_DAC_StateTypeDef HAL_DAC_GetState(DAC_HandleTypeDef *hdac)
1009:Drivers/STM32F2xx_HAL_Driver/Src/stm32f2xx_hal_dac.c **** {
1010:Drivers/STM32F2xx_HAL_Driver/Src/stm32f2xx_hal_dac.c ****   /* Return DAC handle state */
1011:Drivers/STM32F2xx_HAL_Driver/Src/stm32f2xx_hal_dac.c ****   return hdac->State;
1012:Drivers/STM32F2xx_HAL_Driver/Src/stm32f2xx_hal_dac.c **** }
1013:Drivers/STM32F2xx_HAL_Driver/Src/stm32f2xx_hal_dac.c **** 
1014:Drivers/STM32F2xx_HAL_Driver/Src/stm32f2xx_hal_dac.c **** 
1015:Drivers/STM32F2xx_HAL_Driver/Src/stm32f2xx_hal_dac.c **** /**
1016:Drivers/STM32F2xx_HAL_Driver/Src/stm32f2xx_hal_dac.c ****   * @brief  Return the DAC error code
1017:Drivers/STM32F2xx_HAL_Driver/Src/stm32f2xx_hal_dac.c ****   * @param  hdac pointer to a DAC_HandleTypeDef structure that contains
1018:Drivers/STM32F2xx_HAL_Driver/Src/stm32f2xx_hal_dac.c ****   *         the configuration information for the specified DAC.
1019:Drivers/STM32F2xx_HAL_Driver/Src/stm32f2xx_hal_dac.c ****   * @retval DAC Error Code
1020:Drivers/STM32F2xx_HAL_Driver/Src/stm32f2xx_hal_dac.c ****   */
1021:Drivers/STM32F2xx_HAL_Driver/Src/stm32f2xx_hal_dac.c **** uint32_t HAL_DAC_GetError(DAC_HandleTypeDef *hdac)
1022:Drivers/STM32F2xx_HAL_Driver/Src/stm32f2xx_hal_dac.c **** {
1023:Drivers/STM32F2xx_HAL_Driver/Src/stm32f2xx_hal_dac.c ****   return hdac->ErrorCode;
1024:Drivers/STM32F2xx_HAL_Driver/Src/stm32f2xx_hal_dac.c **** }
1025:Drivers/STM32F2xx_HAL_Driver/Src/stm32f2xx_hal_dac.c **** 
1026:Drivers/STM32F2xx_HAL_Driver/Src/stm32f2xx_hal_dac.c **** /**
1027:Drivers/STM32F2xx_HAL_Driver/Src/stm32f2xx_hal_dac.c ****   * @}
1028:Drivers/STM32F2xx_HAL_Driver/Src/stm32f2xx_hal_dac.c ****   */
1029:Drivers/STM32F2xx_HAL_Driver/Src/stm32f2xx_hal_dac.c **** 
1030:Drivers/STM32F2xx_HAL_Driver/Src/stm32f2xx_hal_dac.c **** /**
1031:Drivers/STM32F2xx_HAL_Driver/Src/stm32f2xx_hal_dac.c ****   * @}
1032:Drivers/STM32F2xx_HAL_Driver/Src/stm32f2xx_hal_dac.c ****   */
1033:Drivers/STM32F2xx_HAL_Driver/Src/stm32f2xx_hal_dac.c **** 
1034:Drivers/STM32F2xx_HAL_Driver/Src/stm32f2xx_hal_dac.c **** /** @addtogroup DAC_Exported_Functions
1035:Drivers/STM32F2xx_HAL_Driver/Src/stm32f2xx_hal_dac.c ****   * @{
1036:Drivers/STM32F2xx_HAL_Driver/Src/stm32f2xx_hal_dac.c ****   */
1037:Drivers/STM32F2xx_HAL_Driver/Src/stm32f2xx_hal_dac.c **** 
1038:Drivers/STM32F2xx_HAL_Driver/Src/stm32f2xx_hal_dac.c **** /** @addtogroup DAC_Exported_Functions_Group1
1039:Drivers/STM32F2xx_HAL_Driver/Src/stm32f2xx_hal_dac.c ****   * @{
1040:Drivers/STM32F2xx_HAL_Driver/Src/stm32f2xx_hal_dac.c ****   */
1041:Drivers/STM32F2xx_HAL_Driver/Src/stm32f2xx_hal_dac.c **** #if (USE_HAL_DAC_REGISTER_CALLBACKS == 1)
1042:Drivers/STM32F2xx_HAL_Driver/Src/stm32f2xx_hal_dac.c **** /**
1043:Drivers/STM32F2xx_HAL_Driver/Src/stm32f2xx_hal_dac.c ****   * @brief  Register a User DAC Callback
1044:Drivers/STM32F2xx_HAL_Driver/Src/stm32f2xx_hal_dac.c ****   *         To be used instead of the weak (surcharged) predefined callback
1045:Drivers/STM32F2xx_HAL_Driver/Src/stm32f2xx_hal_dac.c ****   * @param  hdac DAC handle
ARM GAS  /tmp/ccAK1HYA.s 			page 35


1046:Drivers/STM32F2xx_HAL_Driver/Src/stm32f2xx_hal_dac.c ****   * @param  CallbackID ID of the callback to be registered
1047:Drivers/STM32F2xx_HAL_Driver/Src/stm32f2xx_hal_dac.c ****   *         This parameter can be one of the following values:
1048:Drivers/STM32F2xx_HAL_Driver/Src/stm32f2xx_hal_dac.c ****   *          @arg @ref HAL_DAC_ERROR_INVALID_CALLBACK   DAC Error Callback ID
1049:Drivers/STM32F2xx_HAL_Driver/Src/stm32f2xx_hal_dac.c ****   *          @arg @ref HAL_DAC_CH1_COMPLETE_CB_ID       DAC CH1 Complete Callback ID
1050:Drivers/STM32F2xx_HAL_Driver/Src/stm32f2xx_hal_dac.c ****   *          @arg @ref HAL_DAC_CH1_HALF_COMPLETE_CB_ID  DAC CH1 Half Complete Callback ID
1051:Drivers/STM32F2xx_HAL_Driver/Src/stm32f2xx_hal_dac.c ****   *          @arg @ref HAL_DAC_CH1_ERROR_ID             DAC CH1 Error Callback ID
1052:Drivers/STM32F2xx_HAL_Driver/Src/stm32f2xx_hal_dac.c ****   *          @arg @ref HAL_DAC_CH1_UNDERRUN_CB_ID       DAC CH1 UnderRun Callback ID
1053:Drivers/STM32F2xx_HAL_Driver/Src/stm32f2xx_hal_dac.c ****   *          @arg @ref HAL_DAC_CH2_COMPLETE_CB_ID       DAC CH2 Complete Callback ID
1054:Drivers/STM32F2xx_HAL_Driver/Src/stm32f2xx_hal_dac.c ****   *          @arg @ref HAL_DAC_CH2_HALF_COMPLETE_CB_ID  DAC CH2 Half Complete Callback ID
1055:Drivers/STM32F2xx_HAL_Driver/Src/stm32f2xx_hal_dac.c ****   *          @arg @ref HAL_DAC_CH2_ERROR_ID             DAC CH2 Error Callback ID
1056:Drivers/STM32F2xx_HAL_Driver/Src/stm32f2xx_hal_dac.c ****   *          @arg @ref HAL_DAC_CH2_UNDERRUN_CB_ID       DAC CH2 UnderRun Callback ID
1057:Drivers/STM32F2xx_HAL_Driver/Src/stm32f2xx_hal_dac.c ****   *          @arg @ref HAL_DAC_MSPINIT_CB_ID            DAC MSP Init Callback ID
1058:Drivers/STM32F2xx_HAL_Driver/Src/stm32f2xx_hal_dac.c ****   *          @arg @ref HAL_DAC_MSPDEINIT_CB_ID          DAC MSP DeInit Callback ID
1059:Drivers/STM32F2xx_HAL_Driver/Src/stm32f2xx_hal_dac.c ****   *
1060:Drivers/STM32F2xx_HAL_Driver/Src/stm32f2xx_hal_dac.c ****   * @param  pCallback pointer to the Callback function
1061:Drivers/STM32F2xx_HAL_Driver/Src/stm32f2xx_hal_dac.c ****   * @retval status
1062:Drivers/STM32F2xx_HAL_Driver/Src/stm32f2xx_hal_dac.c ****   */
1063:Drivers/STM32F2xx_HAL_Driver/Src/stm32f2xx_hal_dac.c **** HAL_StatusTypeDef HAL_DAC_RegisterCallback(DAC_HandleTypeDef *hdac, HAL_DAC_CallbackIDTypeDef Callb
1064:Drivers/STM32F2xx_HAL_Driver/Src/stm32f2xx_hal_dac.c ****                                            pDAC_CallbackTypeDef pCallback)
1065:Drivers/STM32F2xx_HAL_Driver/Src/stm32f2xx_hal_dac.c **** {
1066:Drivers/STM32F2xx_HAL_Driver/Src/stm32f2xx_hal_dac.c ****   HAL_StatusTypeDef status = HAL_OK;
1067:Drivers/STM32F2xx_HAL_Driver/Src/stm32f2xx_hal_dac.c **** 
1068:Drivers/STM32F2xx_HAL_Driver/Src/stm32f2xx_hal_dac.c ****   if (pCallback == NULL)
1069:Drivers/STM32F2xx_HAL_Driver/Src/stm32f2xx_hal_dac.c ****   {
1070:Drivers/STM32F2xx_HAL_Driver/Src/stm32f2xx_hal_dac.c ****     /* Update the error code */
1071:Drivers/STM32F2xx_HAL_Driver/Src/stm32f2xx_hal_dac.c ****     hdac->ErrorCode |= HAL_DAC_ERROR_INVALID_CALLBACK;
1072:Drivers/STM32F2xx_HAL_Driver/Src/stm32f2xx_hal_dac.c ****     return HAL_ERROR;
1073:Drivers/STM32F2xx_HAL_Driver/Src/stm32f2xx_hal_dac.c ****   }
1074:Drivers/STM32F2xx_HAL_Driver/Src/stm32f2xx_hal_dac.c **** 
1075:Drivers/STM32F2xx_HAL_Driver/Src/stm32f2xx_hal_dac.c ****   /* Process locked */
1076:Drivers/STM32F2xx_HAL_Driver/Src/stm32f2xx_hal_dac.c ****   __HAL_LOCK(hdac);
1077:Drivers/STM32F2xx_HAL_Driver/Src/stm32f2xx_hal_dac.c **** 
1078:Drivers/STM32F2xx_HAL_Driver/Src/stm32f2xx_hal_dac.c ****   if (hdac->State == HAL_DAC_STATE_READY)
1079:Drivers/STM32F2xx_HAL_Driver/Src/stm32f2xx_hal_dac.c ****   {
1080:Drivers/STM32F2xx_HAL_Driver/Src/stm32f2xx_hal_dac.c ****     switch (CallbackID)
1081:Drivers/STM32F2xx_HAL_Driver/Src/stm32f2xx_hal_dac.c ****     {
1082:Drivers/STM32F2xx_HAL_Driver/Src/stm32f2xx_hal_dac.c ****       case HAL_DAC_CH1_COMPLETE_CB_ID :
1083:Drivers/STM32F2xx_HAL_Driver/Src/stm32f2xx_hal_dac.c ****         hdac->ConvCpltCallbackCh1 = pCallback;
1084:Drivers/STM32F2xx_HAL_Driver/Src/stm32f2xx_hal_dac.c ****         break;
1085:Drivers/STM32F2xx_HAL_Driver/Src/stm32f2xx_hal_dac.c ****       case HAL_DAC_CH1_HALF_COMPLETE_CB_ID :
1086:Drivers/STM32F2xx_HAL_Driver/Src/stm32f2xx_hal_dac.c ****         hdac->ConvHalfCpltCallbackCh1 = pCallback;
1087:Drivers/STM32F2xx_HAL_Driver/Src/stm32f2xx_hal_dac.c ****         break;
1088:Drivers/STM32F2xx_HAL_Driver/Src/stm32f2xx_hal_dac.c ****       case HAL_DAC_CH1_ERROR_ID :
1089:Drivers/STM32F2xx_HAL_Driver/Src/stm32f2xx_hal_dac.c ****         hdac->ErrorCallbackCh1 = pCallback;
1090:Drivers/STM32F2xx_HAL_Driver/Src/stm32f2xx_hal_dac.c ****         break;
1091:Drivers/STM32F2xx_HAL_Driver/Src/stm32f2xx_hal_dac.c ****       case HAL_DAC_CH1_UNDERRUN_CB_ID :
1092:Drivers/STM32F2xx_HAL_Driver/Src/stm32f2xx_hal_dac.c ****         hdac->DMAUnderrunCallbackCh1 = pCallback;
1093:Drivers/STM32F2xx_HAL_Driver/Src/stm32f2xx_hal_dac.c ****         break;
1094:Drivers/STM32F2xx_HAL_Driver/Src/stm32f2xx_hal_dac.c **** 
1095:Drivers/STM32F2xx_HAL_Driver/Src/stm32f2xx_hal_dac.c ****       case HAL_DAC_CH2_COMPLETE_CB_ID :
1096:Drivers/STM32F2xx_HAL_Driver/Src/stm32f2xx_hal_dac.c ****         hdac->ConvCpltCallbackCh2 = pCallback;
1097:Drivers/STM32F2xx_HAL_Driver/Src/stm32f2xx_hal_dac.c ****         break;
1098:Drivers/STM32F2xx_HAL_Driver/Src/stm32f2xx_hal_dac.c ****       case HAL_DAC_CH2_HALF_COMPLETE_CB_ID :
1099:Drivers/STM32F2xx_HAL_Driver/Src/stm32f2xx_hal_dac.c ****         hdac->ConvHalfCpltCallbackCh2 = pCallback;
1100:Drivers/STM32F2xx_HAL_Driver/Src/stm32f2xx_hal_dac.c ****         break;
1101:Drivers/STM32F2xx_HAL_Driver/Src/stm32f2xx_hal_dac.c ****       case HAL_DAC_CH2_ERROR_ID :
1102:Drivers/STM32F2xx_HAL_Driver/Src/stm32f2xx_hal_dac.c ****         hdac->ErrorCallbackCh2 = pCallback;
ARM GAS  /tmp/ccAK1HYA.s 			page 36


1103:Drivers/STM32F2xx_HAL_Driver/Src/stm32f2xx_hal_dac.c ****         break;
1104:Drivers/STM32F2xx_HAL_Driver/Src/stm32f2xx_hal_dac.c ****       case HAL_DAC_CH2_UNDERRUN_CB_ID :
1105:Drivers/STM32F2xx_HAL_Driver/Src/stm32f2xx_hal_dac.c ****         hdac->DMAUnderrunCallbackCh2 = pCallback;
1106:Drivers/STM32F2xx_HAL_Driver/Src/stm32f2xx_hal_dac.c ****         break;
1107:Drivers/STM32F2xx_HAL_Driver/Src/stm32f2xx_hal_dac.c **** 
1108:Drivers/STM32F2xx_HAL_Driver/Src/stm32f2xx_hal_dac.c ****       case HAL_DAC_MSPINIT_CB_ID :
1109:Drivers/STM32F2xx_HAL_Driver/Src/stm32f2xx_hal_dac.c ****         hdac->MspInitCallback = pCallback;
1110:Drivers/STM32F2xx_HAL_Driver/Src/stm32f2xx_hal_dac.c ****         break;
1111:Drivers/STM32F2xx_HAL_Driver/Src/stm32f2xx_hal_dac.c ****       case HAL_DAC_MSPDEINIT_CB_ID :
1112:Drivers/STM32F2xx_HAL_Driver/Src/stm32f2xx_hal_dac.c ****         hdac->MspDeInitCallback = pCallback;
1113:Drivers/STM32F2xx_HAL_Driver/Src/stm32f2xx_hal_dac.c ****         break;
1114:Drivers/STM32F2xx_HAL_Driver/Src/stm32f2xx_hal_dac.c ****       default :
1115:Drivers/STM32F2xx_HAL_Driver/Src/stm32f2xx_hal_dac.c ****         /* Update the error code */
1116:Drivers/STM32F2xx_HAL_Driver/Src/stm32f2xx_hal_dac.c ****         hdac->ErrorCode |= HAL_DAC_ERROR_INVALID_CALLBACK;
1117:Drivers/STM32F2xx_HAL_Driver/Src/stm32f2xx_hal_dac.c ****         /* update return status */
1118:Drivers/STM32F2xx_HAL_Driver/Src/stm32f2xx_hal_dac.c ****         status =  HAL_ERROR;
1119:Drivers/STM32F2xx_HAL_Driver/Src/stm32f2xx_hal_dac.c ****         break;
1120:Drivers/STM32F2xx_HAL_Driver/Src/stm32f2xx_hal_dac.c ****     }
1121:Drivers/STM32F2xx_HAL_Driver/Src/stm32f2xx_hal_dac.c ****   }
1122:Drivers/STM32F2xx_HAL_Driver/Src/stm32f2xx_hal_dac.c ****   else if (hdac->State == HAL_DAC_STATE_RESET)
1123:Drivers/STM32F2xx_HAL_Driver/Src/stm32f2xx_hal_dac.c ****   {
1124:Drivers/STM32F2xx_HAL_Driver/Src/stm32f2xx_hal_dac.c ****     switch (CallbackID)
1125:Drivers/STM32F2xx_HAL_Driver/Src/stm32f2xx_hal_dac.c ****     {
1126:Drivers/STM32F2xx_HAL_Driver/Src/stm32f2xx_hal_dac.c ****       case HAL_DAC_MSPINIT_CB_ID :
1127:Drivers/STM32F2xx_HAL_Driver/Src/stm32f2xx_hal_dac.c ****         hdac->MspInitCallback = pCallback;
1128:Drivers/STM32F2xx_HAL_Driver/Src/stm32f2xx_hal_dac.c ****         break;
1129:Drivers/STM32F2xx_HAL_Driver/Src/stm32f2xx_hal_dac.c ****       case HAL_DAC_MSPDEINIT_CB_ID :
1130:Drivers/STM32F2xx_HAL_Driver/Src/stm32f2xx_hal_dac.c ****         hdac->MspDeInitCallback = pCallback;
1131:Drivers/STM32F2xx_HAL_Driver/Src/stm32f2xx_hal_dac.c ****         break;
1132:Drivers/STM32F2xx_HAL_Driver/Src/stm32f2xx_hal_dac.c ****       default :
1133:Drivers/STM32F2xx_HAL_Driver/Src/stm32f2xx_hal_dac.c ****         /* Update the error code */
1134:Drivers/STM32F2xx_HAL_Driver/Src/stm32f2xx_hal_dac.c ****         hdac->ErrorCode |= HAL_DAC_ERROR_INVALID_CALLBACK;
1135:Drivers/STM32F2xx_HAL_Driver/Src/stm32f2xx_hal_dac.c ****         /* update return status */
1136:Drivers/STM32F2xx_HAL_Driver/Src/stm32f2xx_hal_dac.c ****         status =  HAL_ERROR;
1137:Drivers/STM32F2xx_HAL_Driver/Src/stm32f2xx_hal_dac.c ****         break;
1138:Drivers/STM32F2xx_HAL_Driver/Src/stm32f2xx_hal_dac.c ****     }
1139:Drivers/STM32F2xx_HAL_Driver/Src/stm32f2xx_hal_dac.c ****   }
1140:Drivers/STM32F2xx_HAL_Driver/Src/stm32f2xx_hal_dac.c ****   else
1141:Drivers/STM32F2xx_HAL_Driver/Src/stm32f2xx_hal_dac.c ****   {
1142:Drivers/STM32F2xx_HAL_Driver/Src/stm32f2xx_hal_dac.c ****     /* Update the error code */
1143:Drivers/STM32F2xx_HAL_Driver/Src/stm32f2xx_hal_dac.c ****     hdac->ErrorCode |= HAL_DAC_ERROR_INVALID_CALLBACK;
1144:Drivers/STM32F2xx_HAL_Driver/Src/stm32f2xx_hal_dac.c ****     /* update return status */
1145:Drivers/STM32F2xx_HAL_Driver/Src/stm32f2xx_hal_dac.c ****     status =  HAL_ERROR;
1146:Drivers/STM32F2xx_HAL_Driver/Src/stm32f2xx_hal_dac.c ****   }
1147:Drivers/STM32F2xx_HAL_Driver/Src/stm32f2xx_hal_dac.c **** 
1148:Drivers/STM32F2xx_HAL_Driver/Src/stm32f2xx_hal_dac.c ****   /* Release Lock */
1149:Drivers/STM32F2xx_HAL_Driver/Src/stm32f2xx_hal_dac.c ****   __HAL_UNLOCK(hdac);
1150:Drivers/STM32F2xx_HAL_Driver/Src/stm32f2xx_hal_dac.c ****   return status;
1151:Drivers/STM32F2xx_HAL_Driver/Src/stm32f2xx_hal_dac.c **** }
1152:Drivers/STM32F2xx_HAL_Driver/Src/stm32f2xx_hal_dac.c **** 
1153:Drivers/STM32F2xx_HAL_Driver/Src/stm32f2xx_hal_dac.c **** /**
1154:Drivers/STM32F2xx_HAL_Driver/Src/stm32f2xx_hal_dac.c ****   * @brief  Unregister a User DAC Callback
1155:Drivers/STM32F2xx_HAL_Driver/Src/stm32f2xx_hal_dac.c ****   *         DAC Callback is redirected to the weak (surcharged) predefined callback
1156:Drivers/STM32F2xx_HAL_Driver/Src/stm32f2xx_hal_dac.c ****   * @param  hdac DAC handle
1157:Drivers/STM32F2xx_HAL_Driver/Src/stm32f2xx_hal_dac.c ****   * @param  CallbackID ID of the callback to be unregistered
1158:Drivers/STM32F2xx_HAL_Driver/Src/stm32f2xx_hal_dac.c ****   *         This parameter can be one of the following values:
1159:Drivers/STM32F2xx_HAL_Driver/Src/stm32f2xx_hal_dac.c ****   *          @arg @ref HAL_DAC_CH1_COMPLETE_CB_ID          DAC CH1 transfer Complete Callback ID
ARM GAS  /tmp/ccAK1HYA.s 			page 37


1160:Drivers/STM32F2xx_HAL_Driver/Src/stm32f2xx_hal_dac.c ****   *          @arg @ref HAL_DAC_CH1_HALF_COMPLETE_CB_ID     DAC CH1 Half Complete Callback ID
1161:Drivers/STM32F2xx_HAL_Driver/Src/stm32f2xx_hal_dac.c ****   *          @arg @ref HAL_DAC_CH1_ERROR_ID                DAC CH1 Error Callback ID
1162:Drivers/STM32F2xx_HAL_Driver/Src/stm32f2xx_hal_dac.c ****   *          @arg @ref HAL_DAC_CH1_UNDERRUN_CB_ID          DAC CH1 UnderRun Callback ID
1163:Drivers/STM32F2xx_HAL_Driver/Src/stm32f2xx_hal_dac.c ****   *          @arg @ref HAL_DAC_CH2_COMPLETE_CB_ID          DAC CH2 Complete Callback ID
1164:Drivers/STM32F2xx_HAL_Driver/Src/stm32f2xx_hal_dac.c ****   *          @arg @ref HAL_DAC_CH2_HALF_COMPLETE_CB_ID     DAC CH2 Half Complete Callback ID
1165:Drivers/STM32F2xx_HAL_Driver/Src/stm32f2xx_hal_dac.c ****   *          @arg @ref HAL_DAC_CH2_ERROR_ID                DAC CH2 Error Callback ID
1166:Drivers/STM32F2xx_HAL_Driver/Src/stm32f2xx_hal_dac.c ****   *          @arg @ref HAL_DAC_CH2_UNDERRUN_CB_ID          DAC CH2 UnderRun Callback ID
1167:Drivers/STM32F2xx_HAL_Driver/Src/stm32f2xx_hal_dac.c ****   *          @arg @ref HAL_DAC_MSPINIT_CB_ID               DAC MSP Init Callback ID
1168:Drivers/STM32F2xx_HAL_Driver/Src/stm32f2xx_hal_dac.c ****   *          @arg @ref HAL_DAC_MSPDEINIT_CB_ID             DAC MSP DeInit Callback ID
1169:Drivers/STM32F2xx_HAL_Driver/Src/stm32f2xx_hal_dac.c ****   *          @arg @ref HAL_DAC_ALL_CB_ID                   DAC All callbacks
1170:Drivers/STM32F2xx_HAL_Driver/Src/stm32f2xx_hal_dac.c ****   * @retval status
1171:Drivers/STM32F2xx_HAL_Driver/Src/stm32f2xx_hal_dac.c ****   */
1172:Drivers/STM32F2xx_HAL_Driver/Src/stm32f2xx_hal_dac.c **** HAL_StatusTypeDef HAL_DAC_UnRegisterCallback(DAC_HandleTypeDef *hdac, HAL_DAC_CallbackIDTypeDef Cal
1173:Drivers/STM32F2xx_HAL_Driver/Src/stm32f2xx_hal_dac.c **** {
1174:Drivers/STM32F2xx_HAL_Driver/Src/stm32f2xx_hal_dac.c ****   HAL_StatusTypeDef status = HAL_OK;
1175:Drivers/STM32F2xx_HAL_Driver/Src/stm32f2xx_hal_dac.c **** 
1176:Drivers/STM32F2xx_HAL_Driver/Src/stm32f2xx_hal_dac.c ****   /* Process locked */
1177:Drivers/STM32F2xx_HAL_Driver/Src/stm32f2xx_hal_dac.c ****   __HAL_LOCK(hdac);
1178:Drivers/STM32F2xx_HAL_Driver/Src/stm32f2xx_hal_dac.c **** 
1179:Drivers/STM32F2xx_HAL_Driver/Src/stm32f2xx_hal_dac.c ****   if (hdac->State == HAL_DAC_STATE_READY)
1180:Drivers/STM32F2xx_HAL_Driver/Src/stm32f2xx_hal_dac.c ****   {
1181:Drivers/STM32F2xx_HAL_Driver/Src/stm32f2xx_hal_dac.c ****     switch (CallbackID)
1182:Drivers/STM32F2xx_HAL_Driver/Src/stm32f2xx_hal_dac.c ****     {
1183:Drivers/STM32F2xx_HAL_Driver/Src/stm32f2xx_hal_dac.c ****       case HAL_DAC_CH1_COMPLETE_CB_ID :
1184:Drivers/STM32F2xx_HAL_Driver/Src/stm32f2xx_hal_dac.c ****         hdac->ConvCpltCallbackCh1 = HAL_DAC_ConvCpltCallbackCh1;
1185:Drivers/STM32F2xx_HAL_Driver/Src/stm32f2xx_hal_dac.c ****         break;
1186:Drivers/STM32F2xx_HAL_Driver/Src/stm32f2xx_hal_dac.c ****       case HAL_DAC_CH1_HALF_COMPLETE_CB_ID :
1187:Drivers/STM32F2xx_HAL_Driver/Src/stm32f2xx_hal_dac.c ****         hdac->ConvHalfCpltCallbackCh1 = HAL_DAC_ConvHalfCpltCallbackCh1;
1188:Drivers/STM32F2xx_HAL_Driver/Src/stm32f2xx_hal_dac.c ****         break;
1189:Drivers/STM32F2xx_HAL_Driver/Src/stm32f2xx_hal_dac.c ****       case HAL_DAC_CH1_ERROR_ID :
1190:Drivers/STM32F2xx_HAL_Driver/Src/stm32f2xx_hal_dac.c ****         hdac->ErrorCallbackCh1 = HAL_DAC_ErrorCallbackCh1;
1191:Drivers/STM32F2xx_HAL_Driver/Src/stm32f2xx_hal_dac.c ****         break;
1192:Drivers/STM32F2xx_HAL_Driver/Src/stm32f2xx_hal_dac.c ****       case HAL_DAC_CH1_UNDERRUN_CB_ID :
1193:Drivers/STM32F2xx_HAL_Driver/Src/stm32f2xx_hal_dac.c ****         hdac->DMAUnderrunCallbackCh1 = HAL_DAC_DMAUnderrunCallbackCh1;
1194:Drivers/STM32F2xx_HAL_Driver/Src/stm32f2xx_hal_dac.c ****         break;
1195:Drivers/STM32F2xx_HAL_Driver/Src/stm32f2xx_hal_dac.c **** 
1196:Drivers/STM32F2xx_HAL_Driver/Src/stm32f2xx_hal_dac.c ****       case HAL_DAC_CH2_COMPLETE_CB_ID :
1197:Drivers/STM32F2xx_HAL_Driver/Src/stm32f2xx_hal_dac.c ****         hdac->ConvCpltCallbackCh2 = HAL_DACEx_ConvCpltCallbackCh2;
1198:Drivers/STM32F2xx_HAL_Driver/Src/stm32f2xx_hal_dac.c ****         break;
1199:Drivers/STM32F2xx_HAL_Driver/Src/stm32f2xx_hal_dac.c ****       case HAL_DAC_CH2_HALF_COMPLETE_CB_ID :
1200:Drivers/STM32F2xx_HAL_Driver/Src/stm32f2xx_hal_dac.c ****         hdac->ConvHalfCpltCallbackCh2 = HAL_DACEx_ConvHalfCpltCallbackCh2;
1201:Drivers/STM32F2xx_HAL_Driver/Src/stm32f2xx_hal_dac.c ****         break;
1202:Drivers/STM32F2xx_HAL_Driver/Src/stm32f2xx_hal_dac.c ****       case HAL_DAC_CH2_ERROR_ID :
1203:Drivers/STM32F2xx_HAL_Driver/Src/stm32f2xx_hal_dac.c ****         hdac->ErrorCallbackCh2 = HAL_DACEx_ErrorCallbackCh2;
1204:Drivers/STM32F2xx_HAL_Driver/Src/stm32f2xx_hal_dac.c ****         break;
1205:Drivers/STM32F2xx_HAL_Driver/Src/stm32f2xx_hal_dac.c ****       case HAL_DAC_CH2_UNDERRUN_CB_ID :
1206:Drivers/STM32F2xx_HAL_Driver/Src/stm32f2xx_hal_dac.c ****         hdac->DMAUnderrunCallbackCh2 = HAL_DACEx_DMAUnderrunCallbackCh2;
1207:Drivers/STM32F2xx_HAL_Driver/Src/stm32f2xx_hal_dac.c ****         break;
1208:Drivers/STM32F2xx_HAL_Driver/Src/stm32f2xx_hal_dac.c **** 
1209:Drivers/STM32F2xx_HAL_Driver/Src/stm32f2xx_hal_dac.c ****       case HAL_DAC_MSPINIT_CB_ID :
1210:Drivers/STM32F2xx_HAL_Driver/Src/stm32f2xx_hal_dac.c ****         hdac->MspInitCallback = HAL_DAC_MspInit;
1211:Drivers/STM32F2xx_HAL_Driver/Src/stm32f2xx_hal_dac.c ****         break;
1212:Drivers/STM32F2xx_HAL_Driver/Src/stm32f2xx_hal_dac.c ****       case HAL_DAC_MSPDEINIT_CB_ID :
1213:Drivers/STM32F2xx_HAL_Driver/Src/stm32f2xx_hal_dac.c ****         hdac->MspDeInitCallback = HAL_DAC_MspDeInit;
1214:Drivers/STM32F2xx_HAL_Driver/Src/stm32f2xx_hal_dac.c ****         break;
1215:Drivers/STM32F2xx_HAL_Driver/Src/stm32f2xx_hal_dac.c ****       case HAL_DAC_ALL_CB_ID :
1216:Drivers/STM32F2xx_HAL_Driver/Src/stm32f2xx_hal_dac.c ****         hdac->ConvCpltCallbackCh1 = HAL_DAC_ConvCpltCallbackCh1;
ARM GAS  /tmp/ccAK1HYA.s 			page 38


1217:Drivers/STM32F2xx_HAL_Driver/Src/stm32f2xx_hal_dac.c ****         hdac->ConvHalfCpltCallbackCh1 = HAL_DAC_ConvHalfCpltCallbackCh1;
1218:Drivers/STM32F2xx_HAL_Driver/Src/stm32f2xx_hal_dac.c ****         hdac->ErrorCallbackCh1 = HAL_DAC_ErrorCallbackCh1;
1219:Drivers/STM32F2xx_HAL_Driver/Src/stm32f2xx_hal_dac.c ****         hdac->DMAUnderrunCallbackCh1 = HAL_DAC_DMAUnderrunCallbackCh1;
1220:Drivers/STM32F2xx_HAL_Driver/Src/stm32f2xx_hal_dac.c **** 
1221:Drivers/STM32F2xx_HAL_Driver/Src/stm32f2xx_hal_dac.c ****         hdac->ConvCpltCallbackCh2 = HAL_DACEx_ConvCpltCallbackCh2;
1222:Drivers/STM32F2xx_HAL_Driver/Src/stm32f2xx_hal_dac.c ****         hdac->ConvHalfCpltCallbackCh2 = HAL_DACEx_ConvHalfCpltCallbackCh2;
1223:Drivers/STM32F2xx_HAL_Driver/Src/stm32f2xx_hal_dac.c ****         hdac->ErrorCallbackCh2 = HAL_DACEx_ErrorCallbackCh2;
1224:Drivers/STM32F2xx_HAL_Driver/Src/stm32f2xx_hal_dac.c ****         hdac->DMAUnderrunCallbackCh2 = HAL_DACEx_DMAUnderrunCallbackCh2;
1225:Drivers/STM32F2xx_HAL_Driver/Src/stm32f2xx_hal_dac.c **** 
1226:Drivers/STM32F2xx_HAL_Driver/Src/stm32f2xx_hal_dac.c ****         hdac->MspInitCallback = HAL_DAC_MspInit;
1227:Drivers/STM32F2xx_HAL_Driver/Src/stm32f2xx_hal_dac.c ****         hdac->MspDeInitCallback = HAL_DAC_MspDeInit;
1228:Drivers/STM32F2xx_HAL_Driver/Src/stm32f2xx_hal_dac.c ****         break;
1229:Drivers/STM32F2xx_HAL_Driver/Src/stm32f2xx_hal_dac.c ****       default :
1230:Drivers/STM32F2xx_HAL_Driver/Src/stm32f2xx_hal_dac.c ****         /* Update the error code */
1231:Drivers/STM32F2xx_HAL_Driver/Src/stm32f2xx_hal_dac.c ****         hdac->ErrorCode |= HAL_DAC_ERROR_INVALID_CALLBACK;
1232:Drivers/STM32F2xx_HAL_Driver/Src/stm32f2xx_hal_dac.c ****         /* update return status */
1233:Drivers/STM32F2xx_HAL_Driver/Src/stm32f2xx_hal_dac.c ****         status =  HAL_ERROR;
1234:Drivers/STM32F2xx_HAL_Driver/Src/stm32f2xx_hal_dac.c ****         break;
1235:Drivers/STM32F2xx_HAL_Driver/Src/stm32f2xx_hal_dac.c ****     }
1236:Drivers/STM32F2xx_HAL_Driver/Src/stm32f2xx_hal_dac.c ****   }
1237:Drivers/STM32F2xx_HAL_Driver/Src/stm32f2xx_hal_dac.c ****   else if (hdac->State == HAL_DAC_STATE_RESET)
1238:Drivers/STM32F2xx_HAL_Driver/Src/stm32f2xx_hal_dac.c ****   {
1239:Drivers/STM32F2xx_HAL_Driver/Src/stm32f2xx_hal_dac.c ****     switch (CallbackID)
1240:Drivers/STM32F2xx_HAL_Driver/Src/stm32f2xx_hal_dac.c ****     {
1241:Drivers/STM32F2xx_HAL_Driver/Src/stm32f2xx_hal_dac.c ****       case HAL_DAC_MSPINIT_CB_ID :
1242:Drivers/STM32F2xx_HAL_Driver/Src/stm32f2xx_hal_dac.c ****         hdac->MspInitCallback = HAL_DAC_MspInit;
1243:Drivers/STM32F2xx_HAL_Driver/Src/stm32f2xx_hal_dac.c ****         break;
1244:Drivers/STM32F2xx_HAL_Driver/Src/stm32f2xx_hal_dac.c ****       case HAL_DAC_MSPDEINIT_CB_ID :
1245:Drivers/STM32F2xx_HAL_Driver/Src/stm32f2xx_hal_dac.c ****         hdac->MspDeInitCallback = HAL_DAC_MspDeInit;
1246:Drivers/STM32F2xx_HAL_Driver/Src/stm32f2xx_hal_dac.c ****         break;
1247:Drivers/STM32F2xx_HAL_Driver/Src/stm32f2xx_hal_dac.c ****       default :
1248:Drivers/STM32F2xx_HAL_Driver/Src/stm32f2xx_hal_dac.c ****         /* Update the error code */
1249:Drivers/STM32F2xx_HAL_Driver/Src/stm32f2xx_hal_dac.c ****         hdac->ErrorCode |= HAL_DAC_ERROR_INVALID_CALLBACK;
1250:Drivers/STM32F2xx_HAL_Driver/Src/stm32f2xx_hal_dac.c ****         /* update return status */
1251:Drivers/STM32F2xx_HAL_Driver/Src/stm32f2xx_hal_dac.c ****         status =  HAL_ERROR;
1252:Drivers/STM32F2xx_HAL_Driver/Src/stm32f2xx_hal_dac.c ****         break;
1253:Drivers/STM32F2xx_HAL_Driver/Src/stm32f2xx_hal_dac.c ****     }
1254:Drivers/STM32F2xx_HAL_Driver/Src/stm32f2xx_hal_dac.c ****   }
1255:Drivers/STM32F2xx_HAL_Driver/Src/stm32f2xx_hal_dac.c ****   else
1256:Drivers/STM32F2xx_HAL_Driver/Src/stm32f2xx_hal_dac.c ****   {
1257:Drivers/STM32F2xx_HAL_Driver/Src/stm32f2xx_hal_dac.c ****     /* Update the error code */
1258:Drivers/STM32F2xx_HAL_Driver/Src/stm32f2xx_hal_dac.c ****     hdac->ErrorCode |= HAL_DAC_ERROR_INVALID_CALLBACK;
1259:Drivers/STM32F2xx_HAL_Driver/Src/stm32f2xx_hal_dac.c ****     /* update return status */
1260:Drivers/STM32F2xx_HAL_Driver/Src/stm32f2xx_hal_dac.c ****     status =  HAL_ERROR;
1261:Drivers/STM32F2xx_HAL_Driver/Src/stm32f2xx_hal_dac.c ****   }
1262:Drivers/STM32F2xx_HAL_Driver/Src/stm32f2xx_hal_dac.c **** 
1263:Drivers/STM32F2xx_HAL_Driver/Src/stm32f2xx_hal_dac.c ****   /* Release Lock */
1264:Drivers/STM32F2xx_HAL_Driver/Src/stm32f2xx_hal_dac.c ****   __HAL_UNLOCK(hdac);
1265:Drivers/STM32F2xx_HAL_Driver/Src/stm32f2xx_hal_dac.c ****   return status;
1266:Drivers/STM32F2xx_HAL_Driver/Src/stm32f2xx_hal_dac.c **** }
1267:Drivers/STM32F2xx_HAL_Driver/Src/stm32f2xx_hal_dac.c **** #endif /* USE_HAL_DAC_REGISTER_CALLBACKS */
1268:Drivers/STM32F2xx_HAL_Driver/Src/stm32f2xx_hal_dac.c **** 
1269:Drivers/STM32F2xx_HAL_Driver/Src/stm32f2xx_hal_dac.c **** /**
1270:Drivers/STM32F2xx_HAL_Driver/Src/stm32f2xx_hal_dac.c ****   * @}
1271:Drivers/STM32F2xx_HAL_Driver/Src/stm32f2xx_hal_dac.c ****   */
1272:Drivers/STM32F2xx_HAL_Driver/Src/stm32f2xx_hal_dac.c **** 
1273:Drivers/STM32F2xx_HAL_Driver/Src/stm32f2xx_hal_dac.c **** /**
ARM GAS  /tmp/ccAK1HYA.s 			page 39


1274:Drivers/STM32F2xx_HAL_Driver/Src/stm32f2xx_hal_dac.c ****   * @}
1275:Drivers/STM32F2xx_HAL_Driver/Src/stm32f2xx_hal_dac.c ****   */
1276:Drivers/STM32F2xx_HAL_Driver/Src/stm32f2xx_hal_dac.c **** 
1277:Drivers/STM32F2xx_HAL_Driver/Src/stm32f2xx_hal_dac.c **** /** @addtogroup DAC_Private_Functions
1278:Drivers/STM32F2xx_HAL_Driver/Src/stm32f2xx_hal_dac.c ****   * @{
1279:Drivers/STM32F2xx_HAL_Driver/Src/stm32f2xx_hal_dac.c ****   */
1280:Drivers/STM32F2xx_HAL_Driver/Src/stm32f2xx_hal_dac.c **** 
1281:Drivers/STM32F2xx_HAL_Driver/Src/stm32f2xx_hal_dac.c **** /**
1282:Drivers/STM32F2xx_HAL_Driver/Src/stm32f2xx_hal_dac.c ****   * @brief  DMA conversion complete callback.
1283:Drivers/STM32F2xx_HAL_Driver/Src/stm32f2xx_hal_dac.c ****   * @param  hdma pointer to a DMA_HandleTypeDef structure that contains
1284:Drivers/STM32F2xx_HAL_Driver/Src/stm32f2xx_hal_dac.c ****   *                the configuration information for the specified DMA module.
1285:Drivers/STM32F2xx_HAL_Driver/Src/stm32f2xx_hal_dac.c ****   * @retval None
1286:Drivers/STM32F2xx_HAL_Driver/Src/stm32f2xx_hal_dac.c ****   */
1287:Drivers/STM32F2xx_HAL_Driver/Src/stm32f2xx_hal_dac.c **** void DAC_DMAConvCpltCh1(DMA_HandleTypeDef *hdma)
1288:Drivers/STM32F2xx_HAL_Driver/Src/stm32f2xx_hal_dac.c **** {
 815              		.loc 1 1288 1 is_stmt 1 view -0
 816              		.cfi_startproc
 817              		@ args = 0, pretend = 0, frame = 0
 818              		@ frame_needed = 0, uses_anonymous_args = 0
 819              		.loc 1 1288 1 is_stmt 0 view .LVU225
 820 0000 10B5     		push	{r4, lr}
 821              	.LCFI17:
 822              		.cfi_def_cfa_offset 8
 823              		.cfi_offset 4, -8
 824              		.cfi_offset 14, -4
1289:Drivers/STM32F2xx_HAL_Driver/Src/stm32f2xx_hal_dac.c ****   DAC_HandleTypeDef *hdac = (DAC_HandleTypeDef *)((DMA_HandleTypeDef *)hdma)->Parent;
 825              		.loc 1 1289 3 is_stmt 1 view .LVU226
 826              		.loc 1 1289 22 is_stmt 0 view .LVU227
 827 0002 846B     		ldr	r4, [r0, #56]
 828              	.LVL58:
1290:Drivers/STM32F2xx_HAL_Driver/Src/stm32f2xx_hal_dac.c **** 
1291:Drivers/STM32F2xx_HAL_Driver/Src/stm32f2xx_hal_dac.c **** #if (USE_HAL_DAC_REGISTER_CALLBACKS == 1)
1292:Drivers/STM32F2xx_HAL_Driver/Src/stm32f2xx_hal_dac.c ****   hdac->ConvCpltCallbackCh1(hdac);
1293:Drivers/STM32F2xx_HAL_Driver/Src/stm32f2xx_hal_dac.c **** #else
1294:Drivers/STM32F2xx_HAL_Driver/Src/stm32f2xx_hal_dac.c ****   HAL_DAC_ConvCpltCallbackCh1(hdac);
 829              		.loc 1 1294 3 is_stmt 1 view .LVU228
 830 0004 2046     		mov	r0, r4
 831              	.LVL59:
 832              		.loc 1 1294 3 is_stmt 0 view .LVU229
 833 0006 FFF7FEFF 		bl	HAL_DAC_ConvCpltCallbackCh1
 834              	.LVL60:
1295:Drivers/STM32F2xx_HAL_Driver/Src/stm32f2xx_hal_dac.c **** #endif /* USE_HAL_DAC_REGISTER_CALLBACKS */
1296:Drivers/STM32F2xx_HAL_Driver/Src/stm32f2xx_hal_dac.c **** 
1297:Drivers/STM32F2xx_HAL_Driver/Src/stm32f2xx_hal_dac.c ****   hdac->State = HAL_DAC_STATE_READY;
 835              		.loc 1 1297 3 is_stmt 1 view .LVU230
 836              		.loc 1 1297 15 is_stmt 0 view .LVU231
 837 000a 0123     		movs	r3, #1
 838 000c 2371     		strb	r3, [r4, #4]
1298:Drivers/STM32F2xx_HAL_Driver/Src/stm32f2xx_hal_dac.c **** }
 839              		.loc 1 1298 1 view .LVU232
 840 000e 10BD     		pop	{r4, pc}
 841              		.loc 1 1298 1 view .LVU233
 842              		.cfi_endproc
 843              	.LFE90:
 845              		.section	.text.HAL_DAC_ConvHalfCpltCallbackCh1,"ax",%progbits
 846              		.align	1
 847              		.weak	HAL_DAC_ConvHalfCpltCallbackCh1
ARM GAS  /tmp/ccAK1HYA.s 			page 40


 848              		.syntax unified
 849              		.thumb
 850              		.thumb_func
 851              		.fpu softvfp
 853              	HAL_DAC_ConvHalfCpltCallbackCh1:
 854              	.LVL61:
 855              	.LFB83:
 839:Drivers/STM32F2xx_HAL_Driver/Src/stm32f2xx_hal_dac.c ****   /* Prevent unused argument(s) compilation warning */
 856              		.loc 1 839 1 is_stmt 1 view -0
 857              		.cfi_startproc
 858              		@ args = 0, pretend = 0, frame = 0
 859              		@ frame_needed = 0, uses_anonymous_args = 0
 860              		@ link register save eliminated.
 841:Drivers/STM32F2xx_HAL_Driver/Src/stm32f2xx_hal_dac.c **** 
 861              		.loc 1 841 3 view .LVU235
 846:Drivers/STM32F2xx_HAL_Driver/Src/stm32f2xx_hal_dac.c **** 
 862              		.loc 1 846 1 is_stmt 0 view .LVU236
 863 0000 7047     		bx	lr
 864              		.cfi_endproc
 865              	.LFE83:
 867              		.section	.text.DAC_DMAHalfConvCpltCh1,"ax",%progbits
 868              		.align	1
 869              		.global	DAC_DMAHalfConvCpltCh1
 870              		.syntax unified
 871              		.thumb
 872              		.thumb_func
 873              		.fpu softvfp
 875              	DAC_DMAHalfConvCpltCh1:
 876              	.LVL62:
 877              	.LFB91:
1299:Drivers/STM32F2xx_HAL_Driver/Src/stm32f2xx_hal_dac.c **** 
1300:Drivers/STM32F2xx_HAL_Driver/Src/stm32f2xx_hal_dac.c **** /**
1301:Drivers/STM32F2xx_HAL_Driver/Src/stm32f2xx_hal_dac.c ****   * @brief  DMA half transfer complete callback.
1302:Drivers/STM32F2xx_HAL_Driver/Src/stm32f2xx_hal_dac.c ****   * @param  hdma pointer to a DMA_HandleTypeDef structure that contains
1303:Drivers/STM32F2xx_HAL_Driver/Src/stm32f2xx_hal_dac.c ****   *                the configuration information for the specified DMA module.
1304:Drivers/STM32F2xx_HAL_Driver/Src/stm32f2xx_hal_dac.c ****   * @retval None
1305:Drivers/STM32F2xx_HAL_Driver/Src/stm32f2xx_hal_dac.c ****   */
1306:Drivers/STM32F2xx_HAL_Driver/Src/stm32f2xx_hal_dac.c **** void DAC_DMAHalfConvCpltCh1(DMA_HandleTypeDef *hdma)
1307:Drivers/STM32F2xx_HAL_Driver/Src/stm32f2xx_hal_dac.c **** {
 878              		.loc 1 1307 1 is_stmt 1 view -0
 879              		.cfi_startproc
 880              		@ args = 0, pretend = 0, frame = 0
 881              		@ frame_needed = 0, uses_anonymous_args = 0
 882              		.loc 1 1307 1 is_stmt 0 view .LVU238
 883 0000 08B5     		push	{r3, lr}
 884              	.LCFI18:
 885              		.cfi_def_cfa_offset 8
 886              		.cfi_offset 3, -8
 887              		.cfi_offset 14, -4
1308:Drivers/STM32F2xx_HAL_Driver/Src/stm32f2xx_hal_dac.c ****   DAC_HandleTypeDef *hdac = (DAC_HandleTypeDef *)((DMA_HandleTypeDef *)hdma)->Parent;
 888              		.loc 1 1308 3 is_stmt 1 view .LVU239
 889              	.LVL63:
1309:Drivers/STM32F2xx_HAL_Driver/Src/stm32f2xx_hal_dac.c ****   /* Conversion complete callback */
1310:Drivers/STM32F2xx_HAL_Driver/Src/stm32f2xx_hal_dac.c **** #if (USE_HAL_DAC_REGISTER_CALLBACKS == 1)
1311:Drivers/STM32F2xx_HAL_Driver/Src/stm32f2xx_hal_dac.c ****   hdac->ConvHalfCpltCallbackCh1(hdac);
1312:Drivers/STM32F2xx_HAL_Driver/Src/stm32f2xx_hal_dac.c **** #else
1313:Drivers/STM32F2xx_HAL_Driver/Src/stm32f2xx_hal_dac.c ****   HAL_DAC_ConvHalfCpltCallbackCh1(hdac);
ARM GAS  /tmp/ccAK1HYA.s 			page 41


 890              		.loc 1 1313 3 view .LVU240
 891 0002 806B     		ldr	r0, [r0, #56]
 892              	.LVL64:
 893              		.loc 1 1313 3 is_stmt 0 view .LVU241
 894 0004 FFF7FEFF 		bl	HAL_DAC_ConvHalfCpltCallbackCh1
 895              	.LVL65:
1314:Drivers/STM32F2xx_HAL_Driver/Src/stm32f2xx_hal_dac.c **** #endif  /* USE_HAL_DAC_REGISTER_CALLBACKS */
1315:Drivers/STM32F2xx_HAL_Driver/Src/stm32f2xx_hal_dac.c **** }
 896              		.loc 1 1315 1 view .LVU242
 897 0008 08BD     		pop	{r3, pc}
 898              		.cfi_endproc
 899              	.LFE91:
 901              		.section	.text.HAL_DAC_ErrorCallbackCh1,"ax",%progbits
 902              		.align	1
 903              		.weak	HAL_DAC_ErrorCallbackCh1
 904              		.syntax unified
 905              		.thumb
 906              		.thumb_func
 907              		.fpu softvfp
 909              	HAL_DAC_ErrorCallbackCh1:
 910              	.LVL66:
 911              	.LFB84:
 855:Drivers/STM32F2xx_HAL_Driver/Src/stm32f2xx_hal_dac.c ****   /* Prevent unused argument(s) compilation warning */
 912              		.loc 1 855 1 is_stmt 1 view -0
 913              		.cfi_startproc
 914              		@ args = 0, pretend = 0, frame = 0
 915              		@ frame_needed = 0, uses_anonymous_args = 0
 916              		@ link register save eliminated.
 857:Drivers/STM32F2xx_HAL_Driver/Src/stm32f2xx_hal_dac.c **** 
 917              		.loc 1 857 3 view .LVU244
 862:Drivers/STM32F2xx_HAL_Driver/Src/stm32f2xx_hal_dac.c **** 
 918              		.loc 1 862 1 is_stmt 0 view .LVU245
 919 0000 7047     		bx	lr
 920              		.cfi_endproc
 921              	.LFE84:
 923              		.section	.text.DAC_DMAErrorCh1,"ax",%progbits
 924              		.align	1
 925              		.global	DAC_DMAErrorCh1
 926              		.syntax unified
 927              		.thumb
 928              		.thumb_func
 929              		.fpu softvfp
 931              	DAC_DMAErrorCh1:
 932              	.LVL67:
 933              	.LFB92:
1316:Drivers/STM32F2xx_HAL_Driver/Src/stm32f2xx_hal_dac.c **** 
1317:Drivers/STM32F2xx_HAL_Driver/Src/stm32f2xx_hal_dac.c **** /**
1318:Drivers/STM32F2xx_HAL_Driver/Src/stm32f2xx_hal_dac.c ****   * @brief  DMA error callback
1319:Drivers/STM32F2xx_HAL_Driver/Src/stm32f2xx_hal_dac.c ****   * @param  hdma pointer to a DMA_HandleTypeDef structure that contains
1320:Drivers/STM32F2xx_HAL_Driver/Src/stm32f2xx_hal_dac.c ****   *                the configuration information for the specified DMA module.
1321:Drivers/STM32F2xx_HAL_Driver/Src/stm32f2xx_hal_dac.c ****   * @retval None
1322:Drivers/STM32F2xx_HAL_Driver/Src/stm32f2xx_hal_dac.c ****   */
1323:Drivers/STM32F2xx_HAL_Driver/Src/stm32f2xx_hal_dac.c **** void DAC_DMAErrorCh1(DMA_HandleTypeDef *hdma)
1324:Drivers/STM32F2xx_HAL_Driver/Src/stm32f2xx_hal_dac.c **** {
 934              		.loc 1 1324 1 is_stmt 1 view -0
 935              		.cfi_startproc
 936              		@ args = 0, pretend = 0, frame = 0
ARM GAS  /tmp/ccAK1HYA.s 			page 42


 937              		@ frame_needed = 0, uses_anonymous_args = 0
 938              		.loc 1 1324 1 is_stmt 0 view .LVU247
 939 0000 10B5     		push	{r4, lr}
 940              	.LCFI19:
 941              		.cfi_def_cfa_offset 8
 942              		.cfi_offset 4, -8
 943              		.cfi_offset 14, -4
1325:Drivers/STM32F2xx_HAL_Driver/Src/stm32f2xx_hal_dac.c ****   DAC_HandleTypeDef *hdac = (DAC_HandleTypeDef *)((DMA_HandleTypeDef *)hdma)->Parent;
 944              		.loc 1 1325 3 is_stmt 1 view .LVU248
 945              		.loc 1 1325 22 is_stmt 0 view .LVU249
 946 0002 846B     		ldr	r4, [r0, #56]
 947              	.LVL68:
1326:Drivers/STM32F2xx_HAL_Driver/Src/stm32f2xx_hal_dac.c **** 
1327:Drivers/STM32F2xx_HAL_Driver/Src/stm32f2xx_hal_dac.c ****   /* Set DAC error code to DMA error */
1328:Drivers/STM32F2xx_HAL_Driver/Src/stm32f2xx_hal_dac.c ****   hdac->ErrorCode |= HAL_DAC_ERROR_DMA;
 948              		.loc 1 1328 3 is_stmt 1 view .LVU250
 949              		.loc 1 1328 19 is_stmt 0 view .LVU251
 950 0004 2369     		ldr	r3, [r4, #16]
 951 0006 43F00403 		orr	r3, r3, #4
 952 000a 2361     		str	r3, [r4, #16]
1329:Drivers/STM32F2xx_HAL_Driver/Src/stm32f2xx_hal_dac.c **** 
1330:Drivers/STM32F2xx_HAL_Driver/Src/stm32f2xx_hal_dac.c **** #if (USE_HAL_DAC_REGISTER_CALLBACKS == 1)
1331:Drivers/STM32F2xx_HAL_Driver/Src/stm32f2xx_hal_dac.c ****   hdac->ErrorCallbackCh1(hdac);
1332:Drivers/STM32F2xx_HAL_Driver/Src/stm32f2xx_hal_dac.c **** #else
1333:Drivers/STM32F2xx_HAL_Driver/Src/stm32f2xx_hal_dac.c ****   HAL_DAC_ErrorCallbackCh1(hdac);
 953              		.loc 1 1333 3 is_stmt 1 view .LVU252
 954 000c 2046     		mov	r0, r4
 955              	.LVL69:
 956              		.loc 1 1333 3 is_stmt 0 view .LVU253
 957 000e FFF7FEFF 		bl	HAL_DAC_ErrorCallbackCh1
 958              	.LVL70:
1334:Drivers/STM32F2xx_HAL_Driver/Src/stm32f2xx_hal_dac.c **** #endif /* USE_HAL_DAC_REGISTER_CALLBACKS */
1335:Drivers/STM32F2xx_HAL_Driver/Src/stm32f2xx_hal_dac.c **** 
1336:Drivers/STM32F2xx_HAL_Driver/Src/stm32f2xx_hal_dac.c ****   hdac->State = HAL_DAC_STATE_READY;
 959              		.loc 1 1336 3 is_stmt 1 view .LVU254
 960              		.loc 1 1336 15 is_stmt 0 view .LVU255
 961 0012 0123     		movs	r3, #1
 962 0014 2371     		strb	r3, [r4, #4]
1337:Drivers/STM32F2xx_HAL_Driver/Src/stm32f2xx_hal_dac.c **** }
 963              		.loc 1 1337 1 view .LVU256
 964 0016 10BD     		pop	{r4, pc}
 965              		.loc 1 1337 1 view .LVU257
 966              		.cfi_endproc
 967              	.LFE92:
 969              		.section	.text.HAL_DAC_DMAUnderrunCallbackCh1,"ax",%progbits
 970              		.align	1
 971              		.weak	HAL_DAC_DMAUnderrunCallbackCh1
 972              		.syntax unified
 973              		.thumb
 974              		.thumb_func
 975              		.fpu softvfp
 977              	HAL_DAC_DMAUnderrunCallbackCh1:
 978              	.LVL71:
 979              	.LFB85:
 871:Drivers/STM32F2xx_HAL_Driver/Src/stm32f2xx_hal_dac.c ****   /* Prevent unused argument(s) compilation warning */
 980              		.loc 1 871 1 is_stmt 1 view -0
 981              		.cfi_startproc
ARM GAS  /tmp/ccAK1HYA.s 			page 43


 982              		@ args = 0, pretend = 0, frame = 0
 983              		@ frame_needed = 0, uses_anonymous_args = 0
 984              		@ link register save eliminated.
 873:Drivers/STM32F2xx_HAL_Driver/Src/stm32f2xx_hal_dac.c **** 
 985              		.loc 1 873 3 view .LVU259
 878:Drivers/STM32F2xx_HAL_Driver/Src/stm32f2xx_hal_dac.c **** 
 986              		.loc 1 878 1 is_stmt 0 view .LVU260
 987 0000 7047     		bx	lr
 988              		.cfi_endproc
 989              	.LFE85:
 991              		.section	.text.HAL_DAC_IRQHandler,"ax",%progbits
 992              		.align	1
 993              		.global	HAL_DAC_IRQHandler
 994              		.syntax unified
 995              		.thumb
 996              		.thumb_func
 997              		.fpu softvfp
 999              	HAL_DAC_IRQHandler:
 1000              	.LVL72:
 1001              	.LFB80:
 716:Drivers/STM32F2xx_HAL_Driver/Src/stm32f2xx_hal_dac.c ****   if (__HAL_DAC_GET_IT_SOURCE(hdac, DAC_IT_DMAUDR1))
 1002              		.loc 1 716 1 is_stmt 1 view -0
 1003              		.cfi_startproc
 1004              		@ args = 0, pretend = 0, frame = 0
 1005              		@ frame_needed = 0, uses_anonymous_args = 0
 716:Drivers/STM32F2xx_HAL_Driver/Src/stm32f2xx_hal_dac.c ****   if (__HAL_DAC_GET_IT_SOURCE(hdac, DAC_IT_DMAUDR1))
 1006              		.loc 1 716 1 is_stmt 0 view .LVU262
 1007 0000 10B5     		push	{r4, lr}
 1008              	.LCFI20:
 1009              		.cfi_def_cfa_offset 8
 1010              		.cfi_offset 4, -8
 1011              		.cfi_offset 14, -4
 1012 0002 0446     		mov	r4, r0
 717:Drivers/STM32F2xx_HAL_Driver/Src/stm32f2xx_hal_dac.c ****   {
 1013              		.loc 1 717 3 is_stmt 1 view .LVU263
 717:Drivers/STM32F2xx_HAL_Driver/Src/stm32f2xx_hal_dac.c ****   {
 1014              		.loc 1 717 7 is_stmt 0 view .LVU264
 1015 0004 0368     		ldr	r3, [r0]
 1016 0006 1A68     		ldr	r2, [r3]
 717:Drivers/STM32F2xx_HAL_Driver/Src/stm32f2xx_hal_dac.c ****   {
 1017              		.loc 1 717 6 view .LVU265
 1018 0008 12F4005F 		tst	r2, #8192
 1019 000c 03D0     		beq	.L69
 720:Drivers/STM32F2xx_HAL_Driver/Src/stm32f2xx_hal_dac.c ****     {
 1020              		.loc 1 720 5 is_stmt 1 view .LVU266
 720:Drivers/STM32F2xx_HAL_Driver/Src/stm32f2xx_hal_dac.c ****     {
 1021              		.loc 1 720 9 is_stmt 0 view .LVU267
 1022 000e 5A6B     		ldr	r2, [r3, #52]
 720:Drivers/STM32F2xx_HAL_Driver/Src/stm32f2xx_hal_dac.c ****     {
 1023              		.loc 1 720 8 view .LVU268
 1024 0010 12F4005F 		tst	r2, #8192
 1025 0014 09D1     		bne	.L72
 1026              	.LVL73:
 1027              	.L69:
 744:Drivers/STM32F2xx_HAL_Driver/Src/stm32f2xx_hal_dac.c ****   {
 1028              		.loc 1 744 3 is_stmt 1 view .LVU269
 744:Drivers/STM32F2xx_HAL_Driver/Src/stm32f2xx_hal_dac.c ****   {
ARM GAS  /tmp/ccAK1HYA.s 			page 44


 1029              		.loc 1 744 7 is_stmt 0 view .LVU270
 1030 0016 2368     		ldr	r3, [r4]
 1031 0018 1A68     		ldr	r2, [r3]
 744:Drivers/STM32F2xx_HAL_Driver/Src/stm32f2xx_hal_dac.c ****   {
 1032              		.loc 1 744 6 view .LVU271
 1033 001a 12F0005F 		tst	r2, #536870912
 1034 001e 03D0     		beq	.L68
 747:Drivers/STM32F2xx_HAL_Driver/Src/stm32f2xx_hal_dac.c ****     {
 1035              		.loc 1 747 5 is_stmt 1 view .LVU272
 747:Drivers/STM32F2xx_HAL_Driver/Src/stm32f2xx_hal_dac.c ****     {
 1036              		.loc 1 747 9 is_stmt 0 view .LVU273
 1037 0020 5A6B     		ldr	r2, [r3, #52]
 747:Drivers/STM32F2xx_HAL_Driver/Src/stm32f2xx_hal_dac.c ****     {
 1038              		.loc 1 747 8 view .LVU274
 1039 0022 12F0005F 		tst	r2, #536870912
 1040 0026 11D1     		bne	.L73
 1041              	.L68:
 770:Drivers/STM32F2xx_HAL_Driver/Src/stm32f2xx_hal_dac.c **** 
 1042              		.loc 1 770 1 view .LVU275
 1043 0028 10BD     		pop	{r4, pc}
 1044              	.LVL74:
 1045              	.L72:
 723:Drivers/STM32F2xx_HAL_Driver/Src/stm32f2xx_hal_dac.c **** 
 1046              		.loc 1 723 7 is_stmt 1 view .LVU276
 723:Drivers/STM32F2xx_HAL_Driver/Src/stm32f2xx_hal_dac.c **** 
 1047              		.loc 1 723 19 is_stmt 0 view .LVU277
 1048 002a 0422     		movs	r2, #4
 1049 002c 0271     		strb	r2, [r0, #4]
 726:Drivers/STM32F2xx_HAL_Driver/Src/stm32f2xx_hal_dac.c **** 
 1050              		.loc 1 726 7 is_stmt 1 view .LVU278
 1051 002e 0269     		ldr	r2, [r0, #16]
 1052 0030 42F00102 		orr	r2, r2, #1
 1053 0034 0261     		str	r2, [r0, #16]
 729:Drivers/STM32F2xx_HAL_Driver/Src/stm32f2xx_hal_dac.c **** 
 1054              		.loc 1 729 7 view .LVU279
 1055 0036 4FF40052 		mov	r2, #8192
 1056 003a 5A63     		str	r2, [r3, #52]
 732:Drivers/STM32F2xx_HAL_Driver/Src/stm32f2xx_hal_dac.c **** 
 1057              		.loc 1 732 7 view .LVU280
 1058 003c 0268     		ldr	r2, [r0]
 1059 003e 1368     		ldr	r3, [r2]
 1060 0040 23F48053 		bic	r3, r3, #4096
 1061 0044 1360     		str	r3, [r2]
 738:Drivers/STM32F2xx_HAL_Driver/Src/stm32f2xx_hal_dac.c **** #endif /* USE_HAL_DAC_REGISTER_CALLBACKS */
 1062              		.loc 1 738 7 view .LVU281
 1063 0046 FFF7FEFF 		bl	HAL_DAC_DMAUnderrunCallbackCh1
 1064              	.LVL75:
 738:Drivers/STM32F2xx_HAL_Driver/Src/stm32f2xx_hal_dac.c **** #endif /* USE_HAL_DAC_REGISTER_CALLBACKS */
 1065              		.loc 1 738 7 is_stmt 0 view .LVU282
 1066 004a E4E7     		b	.L69
 1067              	.L73:
 750:Drivers/STM32F2xx_HAL_Driver/Src/stm32f2xx_hal_dac.c **** 
 1068              		.loc 1 750 7 is_stmt 1 view .LVU283
 750:Drivers/STM32F2xx_HAL_Driver/Src/stm32f2xx_hal_dac.c **** 
 1069              		.loc 1 750 19 is_stmt 0 view .LVU284
 1070 004c 0422     		movs	r2, #4
 1071 004e 2271     		strb	r2, [r4, #4]
ARM GAS  /tmp/ccAK1HYA.s 			page 45


 753:Drivers/STM32F2xx_HAL_Driver/Src/stm32f2xx_hal_dac.c **** 
 1072              		.loc 1 753 7 is_stmt 1 view .LVU285
 1073 0050 2269     		ldr	r2, [r4, #16]
 1074 0052 42F00202 		orr	r2, r2, #2
 1075 0056 2261     		str	r2, [r4, #16]
 756:Drivers/STM32F2xx_HAL_Driver/Src/stm32f2xx_hal_dac.c **** 
 1076              		.loc 1 756 7 view .LVU286
 1077 0058 4FF00052 		mov	r2, #536870912
 1078 005c 5A63     		str	r2, [r3, #52]
 759:Drivers/STM32F2xx_HAL_Driver/Src/stm32f2xx_hal_dac.c **** 
 1079              		.loc 1 759 7 view .LVU287
 1080 005e 2268     		ldr	r2, [r4]
 1081 0060 1368     		ldr	r3, [r2]
 1082 0062 23F08053 		bic	r3, r3, #268435456
 1083 0066 1360     		str	r3, [r2]
 765:Drivers/STM32F2xx_HAL_Driver/Src/stm32f2xx_hal_dac.c **** #endif /* USE_HAL_DAC_REGISTER_CALLBACKS */
 1084              		.loc 1 765 7 view .LVU288
 1085 0068 2046     		mov	r0, r4
 1086 006a FFF7FEFF 		bl	HAL_DACEx_DMAUnderrunCallbackCh2
 1087              	.LVL76:
 770:Drivers/STM32F2xx_HAL_Driver/Src/stm32f2xx_hal_dac.c **** 
 1088              		.loc 1 770 1 is_stmt 0 view .LVU289
 1089 006e DBE7     		b	.L68
 1090              		.cfi_endproc
 1091              	.LFE80:
 1093              		.section	.text.HAL_DAC_GetValue,"ax",%progbits
 1094              		.align	1
 1095              		.global	HAL_DAC_GetValue
 1096              		.syntax unified
 1097              		.thumb
 1098              		.thumb_func
 1099              		.fpu softvfp
 1101              	HAL_DAC_GetValue:
 1102              	.LVL77:
 1103              	.LFB86:
 910:Drivers/STM32F2xx_HAL_Driver/Src/stm32f2xx_hal_dac.c ****   uint32_t result;
 1104              		.loc 1 910 1 is_stmt 1 view -0
 1105              		.cfi_startproc
 1106              		@ args = 0, pretend = 0, frame = 0
 1107              		@ frame_needed = 0, uses_anonymous_args = 0
 1108              		@ link register save eliminated.
 911:Drivers/STM32F2xx_HAL_Driver/Src/stm32f2xx_hal_dac.c **** 
 1109              		.loc 1 911 3 view .LVU291
 914:Drivers/STM32F2xx_HAL_Driver/Src/stm32f2xx_hal_dac.c **** 
 1110              		.loc 1 914 3 view .LVU292
 916:Drivers/STM32F2xx_HAL_Driver/Src/stm32f2xx_hal_dac.c ****   {
 1111              		.loc 1 916 3 view .LVU293
 916:Drivers/STM32F2xx_HAL_Driver/Src/stm32f2xx_hal_dac.c ****   {
 1112              		.loc 1 916 6 is_stmt 0 view .LVU294
 1113 0000 11B9     		cbnz	r1, .L75
 918:Drivers/STM32F2xx_HAL_Driver/Src/stm32f2xx_hal_dac.c ****   }
 1114              		.loc 1 918 5 is_stmt 1 view .LVU295
 918:Drivers/STM32F2xx_HAL_Driver/Src/stm32f2xx_hal_dac.c ****   }
 1115              		.loc 1 918 18 is_stmt 0 view .LVU296
 1116 0002 0368     		ldr	r3, [r0]
 918:Drivers/STM32F2xx_HAL_Driver/Src/stm32f2xx_hal_dac.c ****   }
 1117              		.loc 1 918 12 view .LVU297
ARM GAS  /tmp/ccAK1HYA.s 			page 46


 1118 0004 D86A     		ldr	r0, [r3, #44]
 1119              	.LVL78:
 918:Drivers/STM32F2xx_HAL_Driver/Src/stm32f2xx_hal_dac.c ****   }
 1120              		.loc 1 918 12 view .LVU298
 1121 0006 7047     		bx	lr
 1122              	.LVL79:
 1123              	.L75:
 923:Drivers/STM32F2xx_HAL_Driver/Src/stm32f2xx_hal_dac.c ****   }
 1124              		.loc 1 923 5 is_stmt 1 view .LVU299
 923:Drivers/STM32F2xx_HAL_Driver/Src/stm32f2xx_hal_dac.c ****   }
 1125              		.loc 1 923 18 is_stmt 0 view .LVU300
 1126 0008 0368     		ldr	r3, [r0]
 923:Drivers/STM32F2xx_HAL_Driver/Src/stm32f2xx_hal_dac.c ****   }
 1127              		.loc 1 923 12 view .LVU301
 1128 000a 186B     		ldr	r0, [r3, #48]
 1129              	.LVL80:
 927:Drivers/STM32F2xx_HAL_Driver/Src/stm32f2xx_hal_dac.c **** }
 1130              		.loc 1 927 3 is_stmt 1 view .LVU302
 928:Drivers/STM32F2xx_HAL_Driver/Src/stm32f2xx_hal_dac.c **** 
 1131              		.loc 1 928 1 is_stmt 0 view .LVU303
 1132 000c 7047     		bx	lr
 1133              		.cfi_endproc
 1134              	.LFE86:
 1136              		.section	.text.HAL_DAC_ConfigChannel,"ax",%progbits
 1137              		.align	1
 1138              		.global	HAL_DAC_ConfigChannel
 1139              		.syntax unified
 1140              		.thumb
 1141              		.thumb_func
 1142              		.fpu softvfp
 1144              	HAL_DAC_ConfigChannel:
 1145              	.LVL81:
 1146              	.LFB87:
 942:Drivers/STM32F2xx_HAL_Driver/Src/stm32f2xx_hal_dac.c ****   uint32_t tmpreg1;
 1147              		.loc 1 942 1 is_stmt 1 view -0
 1148              		.cfi_startproc
 1149              		@ args = 0, pretend = 0, frame = 0
 1150              		@ frame_needed = 0, uses_anonymous_args = 0
 943:Drivers/STM32F2xx_HAL_Driver/Src/stm32f2xx_hal_dac.c ****   uint32_t tmpreg2;
 1151              		.loc 1 943 3 view .LVU305
 944:Drivers/STM32F2xx_HAL_Driver/Src/stm32f2xx_hal_dac.c **** 
 1152              		.loc 1 944 3 view .LVU306
 947:Drivers/STM32F2xx_HAL_Driver/Src/stm32f2xx_hal_dac.c ****   assert_param(IS_DAC_OUTPUT_BUFFER_STATE(sConfig->DAC_OutputBuffer));
 1153              		.loc 1 947 3 view .LVU307
 948:Drivers/STM32F2xx_HAL_Driver/Src/stm32f2xx_hal_dac.c ****   assert_param(IS_DAC_CHANNEL(Channel));
 1154              		.loc 1 948 3 view .LVU308
 949:Drivers/STM32F2xx_HAL_Driver/Src/stm32f2xx_hal_dac.c **** 
 1155              		.loc 1 949 3 view .LVU309
 952:Drivers/STM32F2xx_HAL_Driver/Src/stm32f2xx_hal_dac.c **** 
 1156              		.loc 1 952 3 view .LVU310
 952:Drivers/STM32F2xx_HAL_Driver/Src/stm32f2xx_hal_dac.c **** 
 1157              		.loc 1 952 3 view .LVU311
 1158 0000 4379     		ldrb	r3, [r0, #5]	@ zero_extendqisi2
 1159 0002 012B     		cmp	r3, #1
 1160 0004 25D0     		beq	.L79
 942:Drivers/STM32F2xx_HAL_Driver/Src/stm32f2xx_hal_dac.c ****   uint32_t tmpreg1;
 1161              		.loc 1 942 1 is_stmt 0 discriminator 2 view .LVU312
ARM GAS  /tmp/ccAK1HYA.s 			page 47


 1162 0006 10B5     		push	{r4, lr}
 1163              	.LCFI21:
 1164              		.cfi_def_cfa_offset 8
 1165              		.cfi_offset 4, -8
 1166              		.cfi_offset 14, -4
 952:Drivers/STM32F2xx_HAL_Driver/Src/stm32f2xx_hal_dac.c **** 
 1167              		.loc 1 952 3 is_stmt 1 discriminator 2 view .LVU313
 1168 0008 4FF0010E 		mov	lr, #1
 1169 000c 80F805E0 		strb	lr, [r0, #5]
 952:Drivers/STM32F2xx_HAL_Driver/Src/stm32f2xx_hal_dac.c **** 
 1170              		.loc 1 952 3 discriminator 2 view .LVU314
 955:Drivers/STM32F2xx_HAL_Driver/Src/stm32f2xx_hal_dac.c **** 
 1171              		.loc 1 955 3 discriminator 2 view .LVU315
 955:Drivers/STM32F2xx_HAL_Driver/Src/stm32f2xx_hal_dac.c **** 
 1172              		.loc 1 955 15 is_stmt 0 discriminator 2 view .LVU316
 1173 0010 0223     		movs	r3, #2
 1174 0012 0371     		strb	r3, [r0, #4]
 958:Drivers/STM32F2xx_HAL_Driver/Src/stm32f2xx_hal_dac.c ****   /* Clear BOFFx, TENx, TSELx, WAVEx and MAMPx bits */
 1175              		.loc 1 958 3 is_stmt 1 discriminator 2 view .LVU317
 958:Drivers/STM32F2xx_HAL_Driver/Src/stm32f2xx_hal_dac.c ****   /* Clear BOFFx, TENx, TSELx, WAVEx and MAMPx bits */
 1176              		.loc 1 958 17 is_stmt 0 discriminator 2 view .LVU318
 1177 0014 0468     		ldr	r4, [r0]
 958:Drivers/STM32F2xx_HAL_Driver/Src/stm32f2xx_hal_dac.c ****   /* Clear BOFFx, TENx, TSELx, WAVEx and MAMPx bits */
 1178              		.loc 1 958 11 discriminator 2 view .LVU319
 1179 0016 2368     		ldr	r3, [r4]
 1180              	.LVL82:
 960:Drivers/STM32F2xx_HAL_Driver/Src/stm32f2xx_hal_dac.c ****   /* Configure for the selected DAC channel: buffer output, trigger */
 1181              		.loc 1 960 3 is_stmt 1 discriminator 2 view .LVU320
 960:Drivers/STM32F2xx_HAL_Driver/Src/stm32f2xx_hal_dac.c ****   /* Configure for the selected DAC channel: buffer output, trigger */
 1182              		.loc 1 960 114 is_stmt 0 discriminator 2 view .LVU321
 1183 0018 02F01002 		and	r2, r2, #16
 1184              	.LVL83:
 960:Drivers/STM32F2xx_HAL_Driver/Src/stm32f2xx_hal_dac.c ****   /* Configure for the selected DAC channel: buffer output, trigger */
 1185              		.loc 1 960 102 discriminator 2 view .LVU322
 1186 001c 40F6FE7C 		movw	ip, #4094
 1187 0020 0CFA02FC 		lsl	ip, ip, r2
 960:Drivers/STM32F2xx_HAL_Driver/Src/stm32f2xx_hal_dac.c ****   /* Configure for the selected DAC channel: buffer output, trigger */
 1188              		.loc 1 960 11 discriminator 2 view .LVU323
 1189 0024 23EA0C0C 		bic	ip, r3, ip
 1190              	.LVL84:
 964:Drivers/STM32F2xx_HAL_Driver/Src/stm32f2xx_hal_dac.c ****   /* Calculate CR register value depending on DAC_Channel */
 1191              		.loc 1 964 3 is_stmt 1 discriminator 2 view .LVU324
 964:Drivers/STM32F2xx_HAL_Driver/Src/stm32f2xx_hal_dac.c ****   /* Calculate CR register value depending on DAC_Channel */
 1192              		.loc 1 964 21 is_stmt 0 discriminator 2 view .LVU325
 1193 0028 0B68     		ldr	r3, [r1]
 964:Drivers/STM32F2xx_HAL_Driver/Src/stm32f2xx_hal_dac.c ****   /* Calculate CR register value depending on DAC_Channel */
 1194              		.loc 1 964 44 discriminator 2 view .LVU326
 1195 002a 4968     		ldr	r1, [r1, #4]
 1196              	.LVL85:
 964:Drivers/STM32F2xx_HAL_Driver/Src/stm32f2xx_hal_dac.c ****   /* Calculate CR register value depending on DAC_Channel */
 1197              		.loc 1 964 11 discriminator 2 view .LVU327
 1198 002c 0B43     		orrs	r3, r3, r1
 1199              	.LVL86:
 966:Drivers/STM32F2xx_HAL_Driver/Src/stm32f2xx_hal_dac.c ****   /* Write to DAC CR */
 1200              		.loc 1 966 3 is_stmt 1 discriminator 2 view .LVU328
 966:Drivers/STM32F2xx_HAL_Driver/Src/stm32f2xx_hal_dac.c ****   /* Write to DAC CR */
 1201              		.loc 1 966 22 is_stmt 0 discriminator 2 view .LVU329
ARM GAS  /tmp/ccAK1HYA.s 			page 48


 1202 002e 9340     		lsls	r3, r3, r2
 1203              	.LVL87:
 966:Drivers/STM32F2xx_HAL_Driver/Src/stm32f2xx_hal_dac.c ****   /* Write to DAC CR */
 1204              		.loc 1 966 11 discriminator 2 view .LVU330
 1205 0030 43EA0C03 		orr	r3, r3, ip
 1206              	.LVL88:
 968:Drivers/STM32F2xx_HAL_Driver/Src/stm32f2xx_hal_dac.c ****   /* Disable wave generation */
 1207              		.loc 1 968 3 is_stmt 1 discriminator 2 view .LVU331
 968:Drivers/STM32F2xx_HAL_Driver/Src/stm32f2xx_hal_dac.c ****   /* Disable wave generation */
 1208              		.loc 1 968 22 is_stmt 0 discriminator 2 view .LVU332
 1209 0034 2360     		str	r3, [r4]
 1210              	.LVL89:
 970:Drivers/STM32F2xx_HAL_Driver/Src/stm32f2xx_hal_dac.c **** 
 1211              		.loc 1 970 3 is_stmt 1 discriminator 2 view .LVU333
 1212 0036 0468     		ldr	r4, [r0]
 1213 0038 2368     		ldr	r3, [r4]
 1214              	.LVL90:
 970:Drivers/STM32F2xx_HAL_Driver/Src/stm32f2xx_hal_dac.c **** 
 1215              		.loc 1 970 3 is_stmt 0 discriminator 2 view .LVU334
 1216 003a C021     		movs	r1, #192
 1217 003c 01FA02F2 		lsl	r2, r1, r2
 1218 0040 23EA0202 		bic	r2, r3, r2
 1219 0044 2260     		str	r2, [r4]
 973:Drivers/STM32F2xx_HAL_Driver/Src/stm32f2xx_hal_dac.c **** 
 1220              		.loc 1 973 3 is_stmt 1 discriminator 2 view .LVU335
 973:Drivers/STM32F2xx_HAL_Driver/Src/stm32f2xx_hal_dac.c **** 
 1221              		.loc 1 973 15 is_stmt 0 discriminator 2 view .LVU336
 1222 0046 80F804E0 		strb	lr, [r0, #4]
 976:Drivers/STM32F2xx_HAL_Driver/Src/stm32f2xx_hal_dac.c **** 
 1223              		.loc 1 976 3 is_stmt 1 discriminator 2 view .LVU337
 976:Drivers/STM32F2xx_HAL_Driver/Src/stm32f2xx_hal_dac.c **** 
 1224              		.loc 1 976 3 discriminator 2 view .LVU338
 1225 004a 0023     		movs	r3, #0
 1226 004c 4371     		strb	r3, [r0, #5]
 976:Drivers/STM32F2xx_HAL_Driver/Src/stm32f2xx_hal_dac.c **** 
 1227              		.loc 1 976 3 discriminator 2 view .LVU339
 979:Drivers/STM32F2xx_HAL_Driver/Src/stm32f2xx_hal_dac.c **** }
 1228              		.loc 1 979 3 discriminator 2 view .LVU340
 979:Drivers/STM32F2xx_HAL_Driver/Src/stm32f2xx_hal_dac.c **** }
 1229              		.loc 1 979 10 is_stmt 0 discriminator 2 view .LVU341
 1230 004e 1846     		mov	r0, r3
 1231              	.LVL91:
 980:Drivers/STM32F2xx_HAL_Driver/Src/stm32f2xx_hal_dac.c **** 
 1232              		.loc 1 980 1 discriminator 2 view .LVU342
 1233 0050 10BD     		pop	{r4, pc}
 1234              	.LVL92:
 1235              	.L79:
 1236              	.LCFI22:
 1237              		.cfi_def_cfa_offset 0
 1238              		.cfi_restore 4
 1239              		.cfi_restore 14
 952:Drivers/STM32F2xx_HAL_Driver/Src/stm32f2xx_hal_dac.c **** 
 1240              		.loc 1 952 3 view .LVU343
 1241 0052 0220     		movs	r0, #2
 1242              	.LVL93:
 980:Drivers/STM32F2xx_HAL_Driver/Src/stm32f2xx_hal_dac.c **** 
 1243              		.loc 1 980 1 view .LVU344
ARM GAS  /tmp/ccAK1HYA.s 			page 49


 1244 0054 7047     		bx	lr
 1245              		.cfi_endproc
 1246              	.LFE87:
 1248              		.section	.text.HAL_DAC_GetState,"ax",%progbits
 1249              		.align	1
 1250              		.global	HAL_DAC_GetState
 1251              		.syntax unified
 1252              		.thumb
 1253              		.thumb_func
 1254              		.fpu softvfp
 1256              	HAL_DAC_GetState:
 1257              	.LVL94:
 1258              	.LFB88:
1009:Drivers/STM32F2xx_HAL_Driver/Src/stm32f2xx_hal_dac.c ****   /* Return DAC handle state */
 1259              		.loc 1 1009 1 is_stmt 1 view -0
 1260              		.cfi_startproc
 1261              		@ args = 0, pretend = 0, frame = 0
 1262              		@ frame_needed = 0, uses_anonymous_args = 0
 1263              		@ link register save eliminated.
1011:Drivers/STM32F2xx_HAL_Driver/Src/stm32f2xx_hal_dac.c **** }
 1264              		.loc 1 1011 3 view .LVU346
1011:Drivers/STM32F2xx_HAL_Driver/Src/stm32f2xx_hal_dac.c **** }
 1265              		.loc 1 1011 14 is_stmt 0 view .LVU347
 1266 0000 0079     		ldrb	r0, [r0, #4]	@ zero_extendqisi2
 1267              	.LVL95:
1012:Drivers/STM32F2xx_HAL_Driver/Src/stm32f2xx_hal_dac.c **** 
 1268              		.loc 1 1012 1 view .LVU348
 1269 0002 7047     		bx	lr
 1270              		.cfi_endproc
 1271              	.LFE88:
 1273              		.section	.text.HAL_DAC_GetError,"ax",%progbits
 1274              		.align	1
 1275              		.global	HAL_DAC_GetError
 1276              		.syntax unified
 1277              		.thumb
 1278              		.thumb_func
 1279              		.fpu softvfp
 1281              	HAL_DAC_GetError:
 1282              	.LVL96:
 1283              	.LFB89:
1022:Drivers/STM32F2xx_HAL_Driver/Src/stm32f2xx_hal_dac.c ****   return hdac->ErrorCode;
 1284              		.loc 1 1022 1 is_stmt 1 view -0
 1285              		.cfi_startproc
 1286              		@ args = 0, pretend = 0, frame = 0
 1287              		@ frame_needed = 0, uses_anonymous_args = 0
 1288              		@ link register save eliminated.
1023:Drivers/STM32F2xx_HAL_Driver/Src/stm32f2xx_hal_dac.c **** }
 1289              		.loc 1 1023 3 view .LVU350
1023:Drivers/STM32F2xx_HAL_Driver/Src/stm32f2xx_hal_dac.c **** }
 1290              		.loc 1 1023 14 is_stmt 0 view .LVU351
 1291 0000 0069     		ldr	r0, [r0, #16]
 1292              	.LVL97:
1024:Drivers/STM32F2xx_HAL_Driver/Src/stm32f2xx_hal_dac.c **** 
 1293              		.loc 1 1024 1 view .LVU352
 1294 0002 7047     		bx	lr
 1295              		.cfi_endproc
 1296              	.LFE89:
ARM GAS  /tmp/ccAK1HYA.s 			page 50


 1298              		.text
 1299              	.Letext0:
 1300              		.file 2 "/home/onur/STM32Toolchain/gcc-arm/arm-none-eabi/include/machine/_default_types.h"
 1301              		.file 3 "/home/onur/STM32Toolchain/gcc-arm/arm-none-eabi/include/sys/_stdint.h"
 1302              		.file 4 "Drivers/CMSIS/Device/ST/STM32F2xx/Include/stm32f215xx.h"
 1303              		.file 5 "Drivers/STM32F2xx_HAL_Driver/Inc/stm32f2xx_hal_def.h"
 1304              		.file 6 "Drivers/STM32F2xx_HAL_Driver/Inc/stm32f2xx_hal_dma.h"
 1305              		.file 7 "Drivers/STM32F2xx_HAL_Driver/Inc/stm32f2xx_hal_dac.h"
 1306              		.file 8 "Drivers/STM32F2xx_HAL_Driver/Inc/stm32f2xx_hal_dac_ex.h"
ARM GAS  /tmp/ccAK1HYA.s 			page 51

